BL51 BANKED LINKER/LOCATER V6.22.4.0                                                    01/20/2024  23:55:42  PAGE 1


BL51 BANKED LINKER/LOCATER V6.22.4.0, INVOKED BY:
C:\KEIL_V5\C51\BIN\BL51.EXE .\Objects\STARTUP.obj, .\Objects\Main.obj, .\Objects\GLCD.obj, .\Objects\uart.obj, .\Objects
>> \RGsm_At.obj, .\Objects\RDataFlash.obj, .\Objects\RTimer0.obj TO .\Objects\GLCD_test_Audio_2412 PRINT (.\Listings\GLC
>> D_test_Audio_2412.m51) RAMSIZE (256)


MEMORY MODEL: LARGE


INPUT MODULES INCLUDED:
  .\Objects\STARTUP.obj (?C_STARTUP)
  .\Objects\Main.obj (MAIN)
  .\Objects\GLCD.obj (GLCD)
  .\Objects\uart.obj (UART)
  .\Objects\RGsm_At.obj (RGSM_AT)
  .\Objects\RDataFlash.obj (RDATAFLASH)
  .\Objects\RTimer0.obj (RTIMER0)
  C:\KEIL_V5\C51\LIB\C51L.LIB (?C_INIT)
  C:\KEIL_V5\C51\LIB\C51L.LIB (?C?CLDPTR)
  C:\KEIL_V5\C51\LIB\C51L.LIB (?C?CLDOPTR)
  C:\KEIL_V5\C51\LIB\C51L.LIB (?C?IMUL)
  C:\KEIL_V5\C51\LIB\C51L.LIB (?C?UIDIV)
  C:\KEIL_V5\C51\LIB\C51L.LIB (?C?ULDIV)
  C:\KEIL_V5\C51\LIB\C51L.LIB (?C?SLCMP)
  C:\KEIL_V5\C51\LIB\C51L.LIB (?C?ULSHR)
  C:\KEIL_V5\C51\LIB\C51L.LIB (?C?LSTXDATA)
  C:\KEIL_V5\C51\LIB\C51L.LIB (?C?LSTKXDATA)
  C:\KEIL_V5\C51\LIB\C51L.LIB (SCANF)
  C:\KEIL_V5\C51\LIB\C51L.LIB (?C?STRCPY)
  C:\KEIL_V5\C51\LIB\C51L.LIB (STRSTR)
  C:\KEIL_V5\C51\LIB\C51L.LIB (?C?MEMSET)
  C:\KEIL_V5\C51\LIB\C51L.LIB (VSPRINTF)
  C:\KEIL_V5\C51\LIB\C51L.LIB (?C?CSTPTR)
  C:\KEIL_V5\C51\LIB\C51L.LIB (?C?IILDX)
  C:\KEIL_V5\C51\LIB\C51L.LIB (?C?ISTPTR)
  C:\KEIL_V5\C51\LIB\C51L.LIB (?C?LNEG)
  C:\KEIL_V5\C51\LIB\C51L.LIB (?C?LSTPTR)
  C:\KEIL_V5\C51\LIB\C51L.LIB (?C?PLDXDATA)
  C:\KEIL_V5\C51\LIB\C51L.LIB (?C?PLDIXDATA)
  C:\KEIL_V5\C51\LIB\C51L.LIB (?C?PILDXDATA)
  C:\KEIL_V5\C51\LIB\C51L.LIB (?C?PSTXDATA)
  C:\KEIL_V5\C51\LIB\C51L.LIB (?C?CCASE)
  C:\KEIL_V5\C51\LIB\C51L.LIB (PRINTF)
  C:\KEIL_V5\C51\LIB\C51L.LIB (GETCHAR)
  C:\KEIL_V5\C51\LIB\C51L.LIB (UNGETC)
  C:\KEIL_V5\C51\LIB\C51L.LIB (ISSPACE)
  C:\KEIL_V5\C51\LIB\C51L.LIB (?C?LSTIDATA)
  C:\KEIL_V5\C51\LIB\C51L.LIB (?C?LSTPDATA)
  C:\KEIL_V5\C51\LIB\C51L.LIB (PUTCHAR)
  C:\KEIL_V5\C51\LIB\C51L.LIB (_GETKEY)


LINK MAP OF MODULE:  .\Objects\GLCD_test_Audio_2412 (?C_STARTUP)


            TYPE    BASE      LENGTH    RELOCATION   SEGMENT NAME
            -----------------------------------------------------

BL51 BANKED LINKER/LOCATER V6.22.4.0                                                  01/20/2024  23:55:42  PAGE 2


            * * * * * * *   D A T A   M E M O R Y   * * * * * * *
            REG     0000H     0008H     ABSOLUTE     "REG BANK 0"
            DATA    0008H     0005H     UNIT         _DATA_GROUP_
                    000DH     0013H                  *** GAP ***
            BIT     0020H.0   0001H.1   UNIT         _BIT_GROUP_
            BIT     0021H.1   0000H.4   UNIT         ?BI?RGSM_AT
            BIT     0021H.5   0000H.1   UNIT         ?BI?RDATAFLASH
            BIT     0021H.6   0000H.1   UNIT         ?BI?GETCHAR
                    0021H.7   0000H.1                *** GAP ***
            IDATA   0022H     0001H     UNIT         ?STACK

            * * * * * * *  X D A T A   M E M O R Y  * * * * * * *
            XDATA   0000H     0401H     UNIT         ?XD?GLCD
            XDATA   0401H     00CDH     UNIT         ?XD?RGSM_AT
            XDATA   04CEH     00A7H     UNIT         ?XD?UART
            XDATA   0575H     0073H     UNIT         _XDATA_GROUP_
            XDATA   05E8H     0008H     UNIT         ?XD?RTIMER0
            XDATA   05F0H     0006H     UNIT         ?XD?_NW_RESPONCE_HANDLER?RGSM_AT
            XDATA   05F6H     0001H     UNIT         ?XD?RDATAFLASH
            XDATA   05F7H     0001H     UNIT         ?XD?GETCHAR

            * * * * * * *   C O D E   M E M O R Y   * * * * * * *
            CODE    0000H     0003H     ABSOLUTE     
            CODE    0003H     0008H     UNIT         ?PR?_READ_DATA_BYTE?RDATAFLASH
            CODE    000BH     0003H     ABSOLUTE     
            CODE    000EH     0014H     UNIT         ?PR?GETCHAR?GETCHAR
                    0022H     0001H                  *** GAP ***
            CODE    0023H     0003H     ABSOLUTE     
            CODE    0026H     171BH     UNIT         ?CO?MAIN
            CODE    1741H     03E3H     UNIT         ?C?LIB_CODE
            CODE    1B24H     0365H     UNIT         ?PR?PRINTF?PRINTF
            CODE    1E89H     0322H     UNIT         ?PR?SCANF?SCANF
            CODE    21ABH     023BH     UNIT         ?PR?_UART_OPEN?UART
            CODE    23E6H     0238H     UNIT         ?PR?CHECKURC?RGSM_AT
            CODE    261EH     01ECH     UNIT         ?PR?MAIN?MAIN
            CODE    280AH     01E7H     UNIT         ?PR?SERIAL_ISR?UART
            CODE    29F1H     013CH     UNIT         ?PR?TIMER0_ISR?RTIMER0
            CODE    2B2DH     0134H     UNIT         ?PR?_DISPLAYNUM?GLCD
            CODE    2C61H     0102H     UNIT         ?CO?RGSM_AT
            CODE    2D63H     00E7H     UNIT         ?PR?_GLCD_IMAGE?GLCD
            CODE    2E4AH     00E4H     UNIT         ?PR?_GLCD_DATA?GLCD
            CODE    2F2EH     00DBH     UNIT         ?PR?_SHOWREMAINIGTIME?GLCD
            CODE    3009H     00D5H     UNIT         ?PR?_NW_RESPONCE_HANDLER?RGSM_AT
            CODE    30DEH     00BFH     UNIT         ?PR?_STRSTR?STRSTR
            CODE    319DH     0090H     UNIT         ?PR?READFLASH?RDATAFLASH
            CODE    322DH     008CH     UNIT         ?C_C51STARTUP
            CODE    32B9H     0079H     UNIT         ?PR?_UART_INTERRUPT_ENABLE?UART
            CODE    3332H     0077H     UNIT         ?PR?_WRITE_DATA_BYTE?RDATAFLASH
            CODE    33A9H     0060H     UNIT         ?PR?_DEBUGPRINTF?RGSM_AT
            CODE    3409H     005FH     UNIT         ?PR?_UART_SEND_DATA?UART
            CODE    3468H     005AH     UNIT         ?PR?GLCD_CLEARALL?GLCD
            CODE    34C2H     0050H     UNIT         ?PR?_UART_RECEIVE_DATA?UART
            CODE    3512H     004FH     UNIT         ?PR?_WRITEFLASHQR?RDATAFLASH
            CODE    3561H     004EH     UNIT         ?C_INITSEG
            CODE    35AFH     004DH     UNIT         ?PR?LOADINGSCREEN?GLCD
            CODE    35FCH     004CH     UNIT         ?PR?_PAGE_ERASE?RDATAFLASH
            CODE    3648H     004AH     UNIT         ?PR?_VSPRINTF?VSPRINTF
BL51 BANKED LINKER/LOCATER V6.22.4.0                                                  01/20/2024  23:55:42  PAGE 3


            CODE    3692H     0049H     UNIT         ?PR?_UART_SEND_STRING?UART
            CODE    36DBH     0046H     UNIT         ?PR?WRITE_FLASH?RDATAFLASH
            CODE    3721H     0038H     UNIT         ?PR?GLCD_INIT?GLCD
            CODE    3759H     002EH     UNIT         ?PR?_GLCD_SETCURSOR?GLCD
            CODE    3787H     0029H     UNIT         ?PR?CLEARUART?RGSM_AT
            CODE    37B0H     0029H     UNIT         ?PR?_TIMER0_INIT?RTIMER0
            CODE    37D9H     0027H     UNIT         ?PR?PUTCHAR?PUTCHAR
            CODE    3800H     0021H     UNIT         ?PR?CHAIRANIMATION?GLCD
            CODE    3821H     0021H     UNIT         ?PR?UART0_LIRC_BAUDRATE2400_OPEN?UART
            CODE    3842H     0020H     UNIT         ?PR?_DELAY_1MS?GLCD
            CODE    3862H     001FH     UNIT         ?PR?QRSCREEN?GLCD
            CODE    3881H     001BH     UNIT         ?PR?_GLCD_COMMAND?GLCD
            CODE    389CH     0014H     UNIT         ?PR?_ISSPACE?ISSPACE
            CODE    38B0H     000EH     UNIT         ?PR?_CONVERTTOUINT16?RDATAFLASH
            CODE    38BEH     000AH     UNIT         ?PR?DEFAULT_SETTINGS?RDATAFLASH
            CODE    38C8H     000AH     UNIT         ?PR?_GETKEY?_GETKEY
            CODE    38D2H     0008H     UNIT         ?PR?GETCHAR?UNGETCHAR



OVERLAY MAP OF MODULE:   .\Objects\GLCD_test_Audio_2412 (?C_STARTUP)


SEGMENT                                          BIT_GROUP          DATA_GROUP          XDATA_GROUP
  +--> CALLED SEGMENT                         START    LENGTH     START    LENGTH     START    LENGTH
-----------------------------------------------------------------------------------------------------
?C_C51STARTUP                                 -----    -----      -----    -----      -----    -----
  +--> ?PR?MAIN?MAIN
  +--> ?C_INITSEG

?PR?MAIN?MAIN                                 -----    -----      -----    -----      0575H    0007H
  +--> ?PR?READFLASH?RDATAFLASH
  +--> ?PR?_UART_OPEN?UART
  +--> ?PR?_UART_INTERRUPT_ENABLE?UART
  +--> ?PR?GLCD_INIT?GLCD
  +--> ?PR?GLCD_CLEARALL?GLCD
  +--> ?PR?_TIMER0_INIT?RTIMER0
  +--> ?PR?CLEARUART?RGSM_AT
  +--> ?CO?MAIN
  +--> ?PR?_UART_SEND_STRING?UART
  +--> ?PR?_DEBUGPRINTF?RGSM_AT
  +--> ?PR?CHECKURC?RGSM_AT
  +--> ?PR?_DELAY_1MS?GLCD
  +--> ?PR?_SHOWREMAINIGTIME?GLCD

?PR?READFLASH?RDATAFLASH                      -----    -----      -----    -----      057CH    0002H
  +--> ?PR?_READ_DATA_BYTE?RDATAFLASH
  +--> ?PR?DEFAULT_SETTINGS?RDATAFLASH

?PR?DEFAULT_SETTINGS?RDATAFLASH               -----    -----      -----    -----      -----    -----
  +--> ?PR?WRITE_FLASH?RDATAFLASH

?PR?WRITE_FLASH?RDATAFLASH                    -----    -----      -----    -----      057EH    0002H
  +--> ?PR?_PAGE_ERASE?RDATAFLASH
  +--> ?PR?_WRITE_DATA_BYTE?RDATAFLASH

?PR?_UART_OPEN?UART                           -----    -----      -----    -----      057CH    0009H
BL51 BANKED LINKER/LOCATER V6.22.4.0                                                  01/20/2024  23:55:42  PAGE 4



?PR?GLCD_INIT?GLCD                            -----    -----      -----    -----      -----    -----
  +--> ?PR?_DELAY_1MS?GLCD
  +--> ?PR?_GLCD_COMMAND?GLCD

?PR?_GLCD_COMMAND?GLCD                        -----    -----      -----    -----      -----    -----
  +--> ?PR?_DELAY_1MS?GLCD

?PR?GLCD_CLEARALL?GLCD                        -----    -----      -----    -----      05D9H    0002H
  +--> ?PR?_GLCD_COMMAND?GLCD
  +--> ?PR?_GLCD_DATA?GLCD

?PR?_UART_SEND_STRING?UART                    -----    -----      -----    -----      -----    -----
  +--> ?PR?_UART_SEND_DATA?UART

?PR?_DEBUGPRINTF?RGSM_AT                      -----    -----      -----    -----      057CH    002EH
  +--> ?PR?_VSPRINTF?VSPRINTF
  +--> ?PR?_UART_SEND_STRING?UART

?PR?_VSPRINTF?VSPRINTF                        -----    -----      -----    -----      05AAH    0006H
  +--> ?PR?PRINTF?PRINTF

?PR?PRINTF?PRINTF                             0020H.0  0001H.1    0008H    0005H      05B0H    0028H
  +--> ?PR?PUTCHAR?PUTCHAR

?PR?CHECKURC?RGSM_AT                          -----    -----      -----    -----      -----    -----
  +--> ?CO?RGSM_AT
  +--> ?PR?_DEBUGPRINTF?RGSM_AT
  +--> ?PR?_STRSTR?STRSTR
  +--> ?PR?_WRITEFLASHQR?RDATAFLASH
  +--> ?PR?WRITE_FLASH?RDATAFLASH
  +--> ?PR?READFLASH?RDATAFLASH
  +--> ?PR?_DELAY_1MS?GLCD
  +--> ?PR?_UART_SEND_STRING?UART
  +--> ?PR?GLCD_CLEARALL?GLCD
  +--> ?PR?QRSCREEN?GLCD
  +--> ?PR?SCANF?SCANF
  +--> ?PR?CHAIRANIMATION?GLCD
  +--> ?PR?CLEARUART?RGSM_AT

?PR?_STRSTR?STRSTR                            -----    -----      -----    -----      057CH    000CH

?PR?_WRITEFLASHQR?RDATAFLASH                  -----    -----      -----    -----      057CH    0002H
  +--> ?PR?_PAGE_ERASE?RDATAFLASH
  +--> ?PR?_WRITE_DATA_BYTE?RDATAFLASH

?PR?QRSCREEN?GLCD                             -----    -----      -----    -----      -----    -----
  +--> ?PR?GLCD_CLEARALL?GLCD
  +--> ?PR?_GLCD_IMAGE?GLCD

?PR?_GLCD_IMAGE?GLCD                          -----    -----      -----    -----      05D9H    000FH
  +--> ?PR?_GLCD_SETCURSOR?GLCD
  +--> ?PR?_GLCD_DATA?GLCD

?PR?_GLCD_SETCURSOR?GLCD                      -----    -----      -----    -----      -----    -----
  +--> ?PR?_GLCD_COMMAND?GLCD

BL51 BANKED LINKER/LOCATER V6.22.4.0                                                  01/20/2024  23:55:42  PAGE 5


?PR?SCANF?SCANF                               0020H.0  0000H.6    0008H    0005H      057CH    002EH
  +--> ?PR?GETCHAR?UNGETCHAR
  +--> ?PR?_ISSPACE?ISSPACE
  +--> ?PR?GETCHAR?GETCHAR

?PR?GETCHAR?GETCHAR                           -----    -----      -----    -----      -----    -----
  +--> ?PR?_GETKEY?_GETKEY
  +--> ?PR?PUTCHAR?PUTCHAR

?PR?CHAIRANIMATION?GLCD                       -----    -----      -----    -----      -----    -----
  +--> ?PR?GLCD_CLEARALL?GLCD
  +--> ?CO?MAIN
  +--> ?PR?_GLCD_IMAGE?GLCD

?PR?_SHOWREMAINIGTIME?GLCD                    -----    -----      -----    -----      057CH    000AH
  +--> ?PR?_DISPLAYNUM?GLCD

?PR?_DISPLAYNUM?GLCD                          -----    -----      -----    -----      0586H    0004H
  +--> ?CO?MAIN
  +--> ?PR?_GLCD_IMAGE?GLCD

*** NEW ROOT ***************************************************

?PR?SERIAL_ISR?UART                           -----    -----      -----    -----      05D8H    0001H

*** NEW ROOT ***************************************************

?PR?TIMER0_ISR?RTIMER0                        -----    -----      -----    -----      -----    -----
  +--> ?PR?QRSCREEN?GLCD
  +--> ?PR?CHAIRANIMATION?GLCD
  +--> ?PR?GLCD_CLEARALL?GLCD
  +--> ?CO?MAIN
  +--> ?PR?_GLCD_IMAGE?GLCD
  +--> ?PR?LOADINGSCREEN?GLCD

?PR?LOADINGSCREEN?GLCD                        -----    -----      -----    -----      -----    -----
  +--> ?PR?GLCD_CLEARALL?GLCD
  +--> ?CO?MAIN
  +--> ?PR?_GLCD_IMAGE?GLCD



SYMBOL TABLE OF MODULE:  .\Objects\GLCD_test_Audio_2412 (?C_STARTUP)

  VALUE           TYPE          NAME
  ----------------------------------

  -------         MODULE        ?C_STARTUP
  C:322DH         SEGMENT       ?C_C51STARTUP
  I:0022H         SEGMENT       ?STACK
  C:0000H         PUBLIC        ?C_STARTUP
  D:00E0H         SYMBOL        ACC
  D:00F0H         SYMBOL        B
  D:0083H         SYMBOL        DPH
  D:0082H         SYMBOL        DPL
  N:0000H         SYMBOL        IBPSTACK
  N:0100H         SYMBOL        IBPSTACKTOP
BL51 BANKED LINKER/LOCATER V6.22.4.0                                                  01/20/2024  23:55:42  PAGE 6


  N:0080H         SYMBOL        IDATALEN
  C:3230H         SYMBOL        IDATALOOP
  N:0000H         SYMBOL        PBPSTACK
  N:0100H         SYMBOL        PBPSTACKTOP
  N:0000H         SYMBOL        PDATALEN
  N:0000H         SYMBOL        PDATASTART
  N:0000H         SYMBOL        PPAGE
  N:0000H         SYMBOL        PPAGEENABLE
  D:00A0H         SYMBOL        PPAGE_SFR
  D:0081H         SYMBOL        SP
  C:322DH         SYMBOL        STARTUP1
  N:0000H         SYMBOL        XBPSTACK
  N:0000H         SYMBOL        XBPSTACKTOP
  N:0000H         SYMBOL        XDATALEN
  N:0000H         SYMBOL        XDATASTART
  C:0000H         LINE#         126
  C:322DH         LINE#         133
  C:322FH         LINE#         134
  C:3230H         LINE#         135
  C:3231H         LINE#         136
  C:3233H         LINE#         185
  C:3236H         LINE#         196
  -------         ENDMOD        ?C_STARTUP

  -------         MODULE        MAIN
  C:0000H         SYMBOL        _ICE_DUMMY_
  D:00B1H         PUBLIC        P0M1
  D:00B3H         PUBLIC        P1M1
  D:00B2H         PUBLIC        P0M2
  D:0080H         PUBLIC        P0
  D:00B5H         PUBLIC        P2M1
  D:00B4H         PUBLIC        P1M2
  D:0090H         PUBLIC        P1
  D:00C2H         PUBLIC        P3M1
  D:00B6H         PUBLIC        P2M2
  D:00A0H         PUBLIC        P2
  D:00F1H         PUBLIC        P1MF76
  D:00C3H         PUBLIC        P3M2
  D:00B9H         PUBLIC        P4M1
  D:00B0H         PUBLIC        P3
  C:1501H         PUBLIC        Seven
  D:00BDH         PUBLIC        P5M1
  D:00BAH         PUBLIC        P4M2
  D:00D8H         PUBLIC        P4
  D:00BEH         PUBLIC        P5M2
  D:00B1H         PUBLIC        P5
  B:00A8H.7       PUBLIC        EA
  C:1681H         PUBLIC        Nine
  C:1381H         PUBLIC        Five
  D:00A8H         PUBLIC        IE
  C:0791H         PUBLIC        chair_left
  D:00B8H         PUBLIC        IP
  C:12C1H         PUBLIC        Four
  C:0FC1H         PUBLIC        Zero
  C:1081H         PUBLIC        One
  C:261EH         PUBLIC        main
  C:0C91H         PUBLIC        loading_up
BL51 BANKED LINKER/LOCATER V6.22.4.0                                                  01/20/2024  23:55:42  PAGE 7


  C:0EC1H         PUBLIC        Remaining_time
  D:0098H         PUBLIC        SCON
  C:1441H         PUBLIC        Six
  D:0088H         PUBLIC        TCON
  B:00B0H.3       PUBLIC        P33
  C:1141H         PUBLIC        Two
  C:0091H         PUBLIC        img
  D:0091H         PUBLIC        SFRS
  B:00A8H.1       PUBLIC        ET0
  B:0088H.5       PUBLIC        TF0
  D:00C0H         PUBLIC        I2C0CON
  D:00E8H         PUBLIC        I2C1CON
  B:0088H.4       PUBLIC        TR0
  C:0691H         PUBLIC        paytmlogo
  D:00F8H         PUBLIC        S1CON
  D:00C8H         PUBLIC        T2CON
  C:0DA9H         PUBLIC        loading_side
  C:0A11H         PUBLIC        chair_Right
  C:0491H         PUBLIC        img2
  C:15C1H         PUBLIC        Eight
  D:00EBH         PUBLIC        P4MF10
  C:1201H         PUBLIC        Three
  D:00D0H         PUBLIC        PSW
  -------         PROC          MAIN
  -------         DO            
  X:0575H         SYMBOL        x
  X:0576H         SYMBOL        y
  X:0577H         SYMBOL        page
  X:0578H         SYMBOL        Data
  -------         DO            
  X:0579H         SYMBOL        Cnt
  -------         DO            
  X:057BH         SYMBOL        SwInput
  -------         ENDDO         
  -------         ENDDO         
  -------         ENDDO         
  C:261EH         LINE#         428
  C:261EH         LINE#         429
  C:261EH         LINE#         430
  C:2629H         LINE#         431
  C:2635H         LINE#         432
  C:263EH         LINE#         433
  C:2647H         LINE#         434
  C:2650H         LINE#         436
  C:2659H         LINE#         437
  C:2662H         LINE#         438
  C:266BH         LINE#         439
  C:2674H         LINE#         441
  C:267DH         LINE#         442
  C:2686H         LINE#         443
  C:268FH         LINE#         446
  C:2698H         LINE#         447
  C:26A1H         LINE#         449
  C:26AAH         LINE#         451
  C:26ACH         LINE#         454
  C:26B5H         LINE#         455
  C:26BEH         LINE#         456
BL51 BANKED LINKER/LOCATER V6.22.4.0                                                  01/20/2024  23:55:42  PAGE 8


  C:26C7H         LINE#         457
  C:26D0H         LINE#         461
  C:26D9H         LINE#         462
  C:26E2H         LINE#         463
  C:26EBH         LINE#         464
  C:26F4H         LINE#         467
  C:26F7H         LINE#         471
  C:2710H         LINE#         472
  C:2717H         LINE#         473
  C:2719H         LINE#         476
  C:2732H         LINE#         481
  C:2735H         LINE#         482
  C:2738H         LINE#         484
  C:273DH         LINE#         485
  C:2743H         LINE#         488
  C:2743H         LINE#         489
  C:2743H         LINE#         491
  C:274DH         LINE#         493
  C:2750H         LINE#         531
  C:275BH         LINE#         532
  C:2764H         LINE#         533
  C:2764H         LINE#         534
  C:2764H         LINE#         535
  C:2769H         LINE#         536
  C:276CH         LINE#         537
  C:276FH         LINE#         538
  C:276FH         LINE#         539
  C:2771H         LINE#         540
  C:277CH         LINE#         541
  C:277CH         LINE#         543
  C:277FH         LINE#         544
  C:277FH         LINE#         545
  C:2781H         LINE#         546
  C:278CH         LINE#         547
  C:278CH         LINE#         549
  C:2796H         LINE#         550
  C:2796H         LINE#         551
  C:27A1H         LINE#         552
  C:27A8H         LINE#         553
  C:27A8H         LINE#         555
  C:27C1H         LINE#         556
  C:27C1H         LINE#         557
  C:27C4H         LINE#         559
  C:27C4H         LINE#         562
  C:27C7H         LINE#         563
  C:27CDH         LINE#         564
  C:27E0H         LINE#         565
  C:27E3H         LINE#         566
  C:27EAH         LINE#         567
  C:27EDH         LINE#         568
  C:27F3H         LINE#         569
  C:27F7H         LINE#         570
  C:27F7H         LINE#         571
  C:2800H         LINE#         572
  C:2800H         LINE#         573
  C:2807H         LINE#         574
  C:2807H         LINE#         576
BL51 BANKED LINKER/LOCATER V6.22.4.0                                                  01/20/2024  23:55:42  PAGE 9


  -------         ENDPROC       MAIN
  -------         ENDMOD        MAIN

  -------         MODULE        GLCD
  C:0000H         SYMBOL        _ICE_DUMMY_
  D:0080H         PUBLIC        P0
  C:3468H         PUBLIC        GLCD_ClearAll
  D:0090H         PUBLIC        P1
  D:00A0H         PUBLIC        P2
  D:00B0H         PUBLIC        P3
  D:00D8H         PUBLIC        P4
  D:00B1H         PUBLIC        P5
  C:2B2DH         PUBLIC        _DisplayNum
  D:00A8H         PUBLIC        IE
  C:3800H         PUBLIC        ChairAnimation
  C:3721H         PUBLIC        GLCD_Init
  D:00B8H         PUBLIC        IP
  C:35AFH         PUBLIC        LoadingScreen
  C:3862H         PUBLIC        QrScreen
  C:3759H         PUBLIC        _GLCD_SetCursor
  D:0098H         PUBLIC        SCON
  B:00B0H.2       PUBLIC        P32
  D:0088H         PUBLIC        TCON
  B:00A0H.4       PUBLIC        P24
  B:00A0H.5       PUBLIC        P25
  C:3881H         PUBLIC        _GLCD_Command
  D:0091H         PUBLIC        SFRS
  X:0000H         PUBLIC        QrArray
  D:00C0H         PUBLIC        I2C0CON
  D:00E8H         PUBLIC        I2C1CON
  C:2D63H         PUBLIC        _GLCD_Image
  C:3842H         PUBLIC        _Delay_1ms
  D:00F8H         PUBLIC        S1CON
  C:2F2EH         PUBLIC        _ShowRemainigTime
  D:00C8H         PUBLIC        T2CON
  X:0400H         PUBLIC        Flags
  C:2E4AH         PUBLIC        _GLCD_Data
  D:00D0H         PUBLIC        PSW
  -------         PROC          _DELAY_1MS
  D:0006H         SYMBOL        mSec
  -------         DO            
  D:0002H         SYMBOL        j
  D:0004H         SYMBOL        t
  -------         ENDDO         
  C:3842H         LINE#         31
  C:3842H         LINE#         32
  C:3842H         LINE#         34
  C:384CH         LINE#         35
  C:384CH         LINE#         36
  C:385AH         LINE#         37
  C:3861H         LINE#         38
  -------         ENDPROC       _DELAY_1MS
  -------         PROC          _GLCD_COMMAND
  D:0007H         SYMBOL        Command
  C:3881H         LINE#         39
  C:3881H         LINE#         40
  C:3881H         LINE#         41
BL51 BANKED LINKER/LOCATER V6.22.4.0                                                  01/20/2024  23:55:42  PAGE 10


  C:3886H         LINE#         42
  C:388CH         LINE#         43
  C:388EH         LINE#         45
  C:3890H         LINE#         46
  C:3897H         LINE#         47
  C:3899H         LINE#         48
  -------         ENDPROC       _GLCD_COMMAND
  -------         PROC          _GLCD_DATA
  D:0007H         SYMBOL        Data
  C:2E4AH         LINE#         51
  C:2E4AH         LINE#         52
  C:2E4AH         LINE#         53
  C:2E4FH         LINE#         54
  C:2E55H         LINE#         55
  C:2E57H         LINE#         57
  C:2E59H         LINE#         59
  C:2E60H         LINE#         60
  C:2E67H         LINE#         61
  C:2E6EH         LINE#         63
  C:2E75H         LINE#         64
  C:2E7CH         LINE#         65
  C:2E83H         LINE#         67
  C:2E8AH         LINE#         68
  C:2E91H         LINE#         69
  C:2E98H         LINE#         71
  C:2E9FH         LINE#         72
  C:2EA6H         LINE#         73
  C:2EADH         LINE#         75
  C:2EB4H         LINE#         76
  C:2EBBH         LINE#         77
  C:2EC2H         LINE#         79
  C:2EC4H         LINE#         80
  C:2ECBH         LINE#         81
  C:2ED2H         LINE#         82
  C:2ED9H         LINE#         84
  C:2EE0H         LINE#         85
  C:2EE7H         LINE#         86
  C:2EEEH         LINE#         88
  C:2EF5H         LINE#         89
  C:2EFCH         LINE#         90
  C:2F03H         LINE#         92
  C:2F0AH         LINE#         93
  C:2F11H         LINE#         94
  C:2F18H         LINE#         96
  C:2F1FH         LINE#         97
  C:2F26H         LINE#         98
  C:2F2DH         LINE#         101
  -------         ENDPROC       _GLCD_DATA
  -------         PROC          GLCD_INIT
  C:3721H         LINE#         103
  C:3721H         LINE#         104
  C:3721H         LINE#         105
  C:372EH         LINE#         106
  C:3739H         LINE#         107
  C:3740H         LINE#         108
  C:3745H         LINE#         109
  C:374AH         LINE#         110
BL51 BANKED LINKER/LOCATER V6.22.4.0                                                  01/20/2024  23:55:42  PAGE 11


  C:374FH         LINE#         111
  C:3754H         LINE#         112
  -------         ENDPROC       GLCD_INIT
  -------         PROC          GLCD_CLEARALL
  -------         DO            
  X:05D9H         SYMBOL        i
  D:0004H         SYMBOL        j
  -------         ENDDO         
  C:3468H         LINE#         115
  C:3468H         LINE#         116
  C:3468H         LINE#         118
  C:3475H         LINE#         119
  C:348EH         LINE#         120
  C:348EH         LINE#         121
  C:3495H         LINE#         122
  C:3498H         LINE#         123
  C:3498H         LINE#         124
  C:349DH         LINE#         125
  C:34A8H         LINE#         126
  C:34B8H         LINE#         127
  C:34BDH         LINE#         128
  -------         ENDPROC       GLCD_CLEARALL
  -------         PROC          _GLCD_SETCURSOR
  D:0007H         SYMBOL        x
  D:0001H         SYMBOL        y
  D:0003H         SYMBOL        Page
  C:3759H         LINE#         131
  C:375BH         LINE#         132
  C:375BH         LINE#         133
  C:3779H         LINE#         134
  C:3780H         LINE#         135
  -------         ENDPROC       _GLCD_SETCURSOR
  -------         PROC          _GLCD_IMAGE
  X:05D9H         SYMBOL        x
  X:05DAH         SYMBOL        y
  X:05DBH         SYMBOL        StartPage
  X:05DCH         SYMBOL        Image
  X:05DFH         SYMBOL        ImageX
  X:05E0H         SYMBOL        ImageY
  -------         DO            
  X:05E1H         SYMBOL        GlcdX
  X:05E2H         SYMBOL        GlcdY
  X:05E3H         SYMBOL        ImageLenX
  X:05E4H         SYMBOL        ImageLenY
  X:05E5H         SYMBOL        Lines
  X:05E6H         SYMBOL        k
  -------         ENDDO         
  C:2D63H         LINE#         138
  C:2D6EH         LINE#         139
  C:2D6EH         LINE#         140
  C:2D7AH         LINE#         141
  C:2D7FH         LINE#         142
  C:2D8DH         LINE#         143
  C:2D92H         LINE#         145
  C:2D95H         LINE#         146
  C:2DBEH         LINE#         147
  C:2DBEH         LINE#         148
BL51 BANKED LINKER/LOCATER V6.22.4.0                                                  01/20/2024  23:55:42  PAGE 12


  C:2DCBH         LINE#         149
  C:2DF0H         LINE#         150
  C:2DF0H         LINE#         151
  C:2E1BH         LINE#         152
  C:2E22H         LINE#         153
  C:2E30H         LINE#         154
  C:2E38H         LINE#         155
  C:2E38H         LINE#         156
  C:2E40H         LINE#         157
  C:2E49H         LINE#         158
  -------         ENDPROC       _GLCD_IMAGE
  -------         PROC          QRSCREEN
  C:3862H         LINE#         160
  C:3862H         LINE#         161
  C:3862H         LINE#         162
  C:3865H         LINE#         163
  -------         ENDPROC       QRSCREEN
  -------         PROC          LOADINGSCREEN
  C:35AFH         LINE#         167
  C:35AFH         LINE#         168
  C:35AFH         LINE#         169
  C:35B2H         LINE#         170
  C:35B2H         LINE#         171
  C:35B9H         LINE#         172
  C:35B9H         LINE#         173
  C:35BCH         LINE#         174
  C:35D7H         LINE#         175
  C:35D9H         LINE#         177
  C:35D9H         LINE#         178
  C:35DCH         LINE#         179
  C:35FBH         LINE#         180
  C:35FBH         LINE#         181
  C:35FBH         LINE#         182
  -------         ENDPROC       LOADINGSCREEN
  -------         PROC          CHAIRANIMATION
  C:3800H         LINE#         184
  C:3800H         LINE#         185
  C:3800H         LINE#         191
  C:3803H         LINE#         192
  -------         ENDPROC       CHAIRANIMATION
  -------         PROC          _SHOWREMAINIGTIME
  D:0002H         SYMBOL        Time
  -------         DO            
  X:057CH         SYMBOL        x
  X:057DH         SYMBOL        y
  X:057EH         SYMBOL        page
  X:057FH         SYMBOL        tempcnt
  X:0580H         SYMBOL        Min
  D:0002H         SYMBOL        Sec
  X:0582H         SYMBOL        Min1
  X:0583H         SYMBOL        Min2
  X:0584H         SYMBOL        Sec1
  X:0585H         SYMBOL        Sec2
  C:2F94H         SYMBOL        Again
  -------         ENDDO         
  C:2F2EH         LINE#         196
  C:2F32H         LINE#         197
BL51 BANKED LINKER/LOCATER V6.22.4.0                                                  01/20/2024  23:55:42  PAGE 13


  C:2F32H         LINE#         198
  C:2F37H         LINE#         201
  C:2F43H         LINE#         202
  C:2F55H         LINE#         203
  C:2F69H         LINE#         204
  C:2F78H         LINE#         205
  C:2F86H         LINE#         206
  C:2F94H         LINE#         208
  C:2F94H         LINE#         209
  C:2FA1H         LINE#         210
  C:2FA5H         LINE#         211
  C:2FAAH         LINE#         213
  C:2FB9H         LINE#         214
  C:2FB9H         LINE#         215
  C:2FB9H         LINE#         216
  C:2FC4H         LINE#         217
  C:2FC6H         LINE#         218
  C:2FC6H         LINE#         219
  C:2FD1H         LINE#         220
  C:2FD3H         LINE#         221
  C:2FD3H         LINE#         222
  C:2FE5H         LINE#         223
  C:2FE7H         LINE#         224
  C:2FE7H         LINE#         225
  C:2FFCH         LINE#         226
  C:2FFCH         LINE#         227
  C:2FFCH         LINE#         228
  C:3002H         LINE#         229
  C:3008H         LINE#         230
  C:3008H         LINE#         232
  -------         ENDPROC       _SHOWREMAINIGTIME
  -------         PROC          _DISPLAYNUM
  X:0586H         SYMBOL        x
  X:0587H         SYMBOL        y
  X:0588H         SYMBOL        Page
  X:0589H         SYMBOL        Num
  C:2B2DH         LINE#         234
  C:2B38H         LINE#         235
  C:2B38H         LINE#         236
  C:2B67H         LINE#         237
  C:2B67H         LINE#         238
  C:2B67H         LINE#         239
  C:2B7CH         LINE#         240
  C:2B7FH         LINE#         241
  C:2B7FH         LINE#         242
  C:2B94H         LINE#         243
  C:2B97H         LINE#         244
  C:2B97H         LINE#         245
  C:2BACH         LINE#         246
  C:2BAFH         LINE#         247
  C:2BAFH         LINE#         248
  C:2BC4H         LINE#         249
  C:2BC7H         LINE#         250
  C:2BC7H         LINE#         251
  C:2BDCH         LINE#         252
  C:2BDEH         LINE#         253
  C:2BDEH         LINE#         254
BL51 BANKED LINKER/LOCATER V6.22.4.0                                                  01/20/2024  23:55:42  PAGE 14


  C:2BF3H         LINE#         255
  C:2BF5H         LINE#         256
  C:2BF5H         LINE#         257
  C:2C0AH         LINE#         258
  C:2C0CH         LINE#         259
  C:2C0CH         LINE#         260
  C:2C21H         LINE#         261
  C:2C23H         LINE#         262
  C:2C23H         LINE#         263
  C:2C38H         LINE#         264
  C:2C3AH         LINE#         265
  C:2C3AH         LINE#         266
  C:2C60H         LINE#         267
  C:2C60H         LINE#         269
  C:2C60H         LINE#         270
  -------         ENDPROC       _DISPLAYNUM
  -------         ENDMOD        GLCD

  -------         MODULE        UART
  C:0000H         SYMBOL        _ICE_DUMMY_
  D:00DCH         PUBLIC        SC0ETURD1
  D:0080H         PUBLIC        P0
  D:0090H         PUBLIC        P1
  D:00A0H         PUBLIC        P2
  D:00B0H         PUBLIC        P3
  D:00D8H         PUBLIC        P4
  D:009CH         PUBLIC        EIE1
  C:3692H         PUBLIC        _UART_Send_String
  C:3409H         PUBLIC        _UART_Send_Data
  X:04CEH         PUBLIC        GlcdImageCnt
  D:00D6H         PUBLIC        SC0CR0
  D:00E6H         PUBLIC        SC1CR0
  D:00D7H         PUBLIC        SC0CR1
  D:00A8H         PUBLIC        IE
  D:00E7H         PUBLIC        SC1CR1
  D:00B8H         PUBLIC        IP
  B:0098H.0       PUBLIC        RI
  C:32B9H         PUBLIC        _UART_Interrupt_Enable
  B:0098H.1       PUBLIC        TI
  X:04D0H         PUBLIC        UartLine
  B:00F8H.0       PUBLIC        RI_1
  B:00F8H.1       PUBLIC        TI_1
  D:0099H         PUBLIC        SBUF
  D:0087H         PUBLIC        PCON
  C:21ABH         PUBLIC        _UART_Open
  C:280AH         PUBLIC        Serial_ISR
  D:0098H         PUBLIC        SCON
  D:0089H         PUBLIC        TMOD
  D:0088H         PUBLIC        TCON
  X:04D1H         PUBLIC        GlcdUartRec
  X:04D2H         PUBLIC        UartRecFlag
  X:04D3H         PUBLIC        GlcdImgRecArray
  D:0091H         PUBLIC        SFRS
  X:04DDH         PUBLIC        UartRecBuff
  D:00DFH         PUBLIC        SC0TSR
  C:34C2H         PUBLIC        _UART_Receive_Data
  D:00DFH         PUBLIC        SC1TSR
BL51 BANKED LINKER/LOCATER V6.22.4.0                                                  01/20/2024  23:55:42  PAGE 15


  C:3821H         PUBLIC        UART0_LIRC_Baudrate2400_Open
  X:0541H         PUBLIC        UartRecCount
  D:00C6H         PUBLIC        RH3
  D:008DH         PUBLIC        TH1
  D:00C0H         PUBLIC        I2C0CON
  D:00E8H         PUBLIC        I2C1CON
  D:00C5H         PUBLIC        RL3
  D:00DDH         PUBLIC        SC0IE
  D:00DDH         PUBLIC        SC1IE
  X:0542H         PUBLIC        UartStarRec
  X:0543H         PUBLIC        UartTempRecBuff
  D:00D9H         PUBLIC        SC0DR
  D:00D9H         PUBLIC        SC1DR
  D:009AH         PUBLIC        SBUF1
  D:00F8H         PUBLIC        S1CON
  D:00C8H         PUBLIC        T2CON
  D:00C4H         PUBLIC        T3CON
  D:008EH         PUBLIC        CKCON
  D:00D0H         PUBLIC        PSW
  D:00DBH         PUBLIC        SC0ETURD0
  -------         PROC          SERIAL_ISR
  -------         DO            
  X:05D8H         SYMBOL        uart_receive_data
  -------         ENDDO         
  C:280AH         LINE#         31
  C:2827H         LINE#         33
  C:282CH         LINE#         35
  C:2832H         LINE#         36
  C:2832H         LINE#         38
  C:2842H         LINE#         39
  C:2848H         LINE#         42
  C:2858H         LINE#         43
  C:2858H         LINE#         44
  C:2860H         LINE#         45
  C:2860H         LINE#         46
  C:286CH         LINE#         47
  C:2889H         LINE#         48
  C:288EH         LINE#         49
  C:2897H         LINE#         50
  C:289CH         LINE#         52
  C:28A1H         LINE#         53
  C:28A7H         LINE#         54
  C:28B5H         LINE#         55
  C:28B7H         LINE#         56
  C:28BDH         LINE#         57
  C:28BDH         LINE#         58
  C:28BFH         LINE#         59
  C:28C4H         LINE#         60
  C:28C4H         LINE#         61
  C:28C4H         LINE#         64
  C:28CFH         LINE#         65
  C:28CFH         LINE#         66
  C:28E9H         LINE#         67
  C:28E9H         LINE#         68
  C:28ECH         LINE#         69
  C:28ECH         LINE#         70
  C:28EEH         LINE#         71
BL51 BANKED LINKER/LOCATER V6.22.4.0                                                  01/20/2024  23:55:42  PAGE 16


  C:2908H         LINE#         72
  C:2908H         LINE#         73
  C:291DH         LINE#         74
  C:2923H         LINE#         75
  C:2923H         LINE#         77
  C:292AH         LINE#         78
  C:292AH         LINE#         79
  C:2958H         LINE#         80
  C:2966H         LINE#         81
  C:296BH         LINE#         82
  C:296FH         LINE#         83
  C:296FH         LINE#         84
  C:296FH         LINE#         87
  C:2979H         LINE#         88
  C:2979H         LINE#         89
  C:2985H         LINE#         90
  C:29A2H         LINE#         91
  C:29ABH         LINE#         92
  C:29B0H         LINE#         94
  C:29B5H         LINE#         95
  C:29BAH         LINE#         96
  C:29C7H         LINE#         97
  C:29C7H         LINE#         103
  C:29CDH         LINE#         105
  C:29CDH         LINE#         106
  C:29D0H         LINE#         107
  C:29D0H         LINE#         108
  C:29D6H         LINE#         109
  C:29D6H         LINE#         110
  -------         ENDPROC       SERIAL_ISR
  -------         PROC          _UART_OPEN
  X:057CH         SYMBOL        u32SysClock
  X:0580H         SYMBOL        u8UARTPort
  X:0581H         SYMBOL        u32Baudrate
  C:21ABH         LINE#         130
  C:21B1H         LINE#         131
  C:21B1H         LINE#         132
  C:21E1H         LINE#         133
  C:21E1H         LINE#         134
  C:21E1H         LINE#         135
  C:21E1H         LINE#         136
  C:21E4H         LINE#         137
  C:21E7H         LINE#         138
  C:21EAH         LINE#         139
  C:21EFH         LINE#         140
  C:21F4H         LINE#         141
  C:21F9H         LINE#         142
  C:2225H         LINE#         143
  C:222BH         LINE#         144
  C:222CH         LINE#         145
  C:222CH         LINE#         146
  C:222FH         LINE#         147
  C:2232H         LINE#         148
  C:2237H         LINE#         149
  C:223AH         LINE#         150
  C:223FH         LINE#         151
  C:223FH         LINE#         152
BL51 BANKED LINKER/LOCATER V6.22.4.0                                                  01/20/2024  23:55:42  PAGE 17


  C:223FH         LINE#         153
  C:223FH         LINE#         154
  C:2241H         LINE#         155
  C:2241H         LINE#         156
  C:2241H         LINE#         157
  C:2244H         LINE#         158
  C:2247H         LINE#         159
  C:224AH         LINE#         160
  C:2286H         LINE#         161
  C:22B5H         LINE#         162
  C:22BAH         LINE#         163
  C:22BBH         LINE#         164
  C:22BBH         LINE#         165
  C:22C1H         LINE#         166
  C:22C6H         LINE#         167
  C:22CBH         LINE#         168
  C:22D0H         LINE#         169
  C:22D5H         LINE#         170
  C:230CH         LINE#         171
  C:230FH         LINE#         172
  C:2350H         LINE#         173
  C:2356H         LINE#         174
  C:2359H         LINE#         175
  C:235EH         LINE#         176
  C:235FH         LINE#         177
  C:235FH         LINE#         178
  C:2365H         LINE#         179
  C:236AH         LINE#         180
  C:236FH         LINE#         181
  C:239DH         LINE#         182
  C:23D6H         LINE#         183
  C:23DCH         LINE#         184
  C:23DFH         LINE#         185
  C:23E5H         LINE#         186
  C:23E5H         LINE#         187
  C:23E5H         LINE#         188
  -------         ENDPROC       _UART_OPEN
  -------         PROC          _UART_RECEIVE_DATA
  D:0007H         SYMBOL        UARTPort
  -------         DO            
  D:0006H         SYMBOL        c
  -------         ENDDO         
  C:34C2H         LINE#         192
  C:34C2H         LINE#         193
  C:34C2H         LINE#         195
  C:34C5H         LINE#         196
  C:34D4H         LINE#         197
  C:34D4H         LINE#         198
  C:34D4H         LINE#         199
  C:34D7H         LINE#         200
  C:34D9H         LINE#         201
  C:34DBH         LINE#         202
  C:34DDH         LINE#         203
  C:34DDH         LINE#         204
  C:34E0H         LINE#         205
  C:34E2H         LINE#         206
  C:34E4H         LINE#         207
BL51 BANKED LINKER/LOCATER V6.22.4.0                                                  01/20/2024  23:55:42  PAGE 18


  C:34E6H         LINE#         208
  C:34E6H         LINE#         209
  C:34ECH         LINE#         210
  C:34F1H         LINE#         211
  C:34F3H         LINE#         212
  C:34F5H         LINE#         213
  C:34F5H         LINE#         214
  C:34FBH         LINE#         215
  C:350DH         LINE#         216
  C:350FH         LINE#         217
  C:350FH         LINE#         218
  C:350FH         LINE#         219
  C:3511H         LINE#         220
  -------         ENDPROC       _UART_RECEIVE_DATA
  -------         PROC          _UART_SEND_DATA
  D:0007H         SYMBOL        UARTPort
  D:0005H         SYMBOL        c
  C:3409H         LINE#         224
  C:3409H         LINE#         225
  C:3409H         LINE#         226
  C:340CH         LINE#         227
  C:341BH         LINE#         228
  C:341BH         LINE#         229
  C:341BH         LINE#         230
  C:341EH         LINE#         231
  C:3420H         LINE#         232
  C:3422H         LINE#         233
  C:3425H         LINE#         234
  C:3427H         LINE#         235
  C:3428H         LINE#         236
  C:3428H         LINE#         237
  C:342BH         LINE#         238
  C:342DH         LINE#         239
  C:342FH         LINE#         240
  C:3432H         LINE#         241
  C:3434H         LINE#         242
  C:3435H         LINE#         243
  C:3435H         LINE#         244
  C:343BH         LINE#         245
  C:343DH         LINE#         246
  C:3445H         LINE#         247
  C:344BH         LINE#         248
  C:344CH         LINE#         249
  C:344CH         LINE#         250
  C:3452H         LINE#         251
  C:3455H         LINE#         252
  C:3459H         LINE#         253
  C:3461H         LINE#         254
  C:3467H         LINE#         255
  C:3467H         LINE#         256
  C:3467H         LINE#         257
  -------         ENDPROC       _UART_SEND_DATA
  -------         PROC          _UART_SEND_STRING
  D:0007H         SYMBOL        UARTPort
  D:0001H         SYMBOL        c
  C:3692H         LINE#         260
  C:3692H         LINE#         261
BL51 BANKED LINKER/LOCATER V6.22.4.0                                                  01/20/2024  23:55:42  PAGE 19


  C:3692H         LINE#         262
  C:369EH         LINE#         263
  C:369EH         LINE#         264
  C:369EH         LINE#         265
  C:36A4H         LINE#         266
  C:36A4H         LINE#         267
  C:36A9H         LINE#         268
  C:36B0H         LINE#         269
  C:36B2H         LINE#         270
  C:36B2H         LINE#         271
  C:36B2H         LINE#         272
  C:36B8H         LINE#         273
  C:36B8H         LINE#         274
  C:36BDH         LINE#         275
  C:36C4H         LINE#         276
  C:36C6H         LINE#         277
  C:36C6H         LINE#         278
  C:36C6H         LINE#         279
  C:36CCH         LINE#         280
  C:36CCH         LINE#         281
  C:36D1H         LINE#         282
  C:36D8H         LINE#         283
  C:36DAH         LINE#         284
  C:36DAH         LINE#         286
  C:36DAH         LINE#         287
  -------         ENDPROC       _UART_SEND_STRING
  -------         PROC          _UART_INTERRUPT_ENABLE
  D:0007H         SYMBOL        u8UARTPort
  D:0005H         SYMBOL        u8UARTINTStatus
  C:32B9H         LINE#         297
  C:32B9H         LINE#         298
  C:32B9H         LINE#         299
  C:32C8H         LINE#         300
  C:32C8H         LINE#         301
  C:32C8H         LINE#         302
  C:32CFH         LINE#         303
  C:32CFH         LINE#         304
  C:32D6H         LINE#         305
  C:32DDH         LINE#         306
  C:32DDH         LINE#         307
  C:32DDH         LINE#         308
  C:32DDH         LINE#         309
  C:32E4H         LINE#         310
  C:32E4H         LINE#         311
  C:32EBH         LINE#         312
  C:32F2H         LINE#         313
  C:32F2H         LINE#         314
  C:32F2H         LINE#         315
  C:32F2H         LINE#         316
  C:32F9H         LINE#         317
  C:32F9H         LINE#         318
  C:32FFH         LINE#         319
  C:3304H         LINE#         320
  C:3305H         LINE#         321
  C:330BH         LINE#         322
  C:3310H         LINE#         323
  C:3311H         LINE#         324
BL51 BANKED LINKER/LOCATER V6.22.4.0                                                  01/20/2024  23:55:42  PAGE 20


  C:3311H         LINE#         325
  C:3311H         LINE#         326
  C:3311H         LINE#         327
  C:3318H         LINE#         328
  C:3318H         LINE#         329
  C:331EH         LINE#         330
  C:3324H         LINE#         331
  C:3325H         LINE#         332
  C:332BH         LINE#         333
  C:3331H         LINE#         334
  C:3331H         LINE#         335
  C:3331H         LINE#         336
  C:3331H         LINE#         337
  C:3331H         LINE#         338
  -------         ENDPROC       _UART_INTERRUPT_ENABLE
  -------         PROC          UART0_LIRC_BAUDRATE2400_OPEN
  C:3821H         LINE#         340
  C:3821H         LINE#         341
  C:3821H         LINE#         342
  C:3824H         LINE#         343
  C:3827H         LINE#         344
  C:382AH         LINE#         345
  C:382FH         LINE#         346
  C:3834H         LINE#         347
  C:3839H         LINE#         348
  C:383CH         LINE#         349
  C:3841H         LINE#         351
  -------         ENDPROC       UART0_LIRC_BAUDRATE2400_OPEN
  -------         ENDMOD        UART

  -------         MODULE        RGSM_AT
  C:0000H         SYMBOL        _ICE_DUMMY_
  D:0080H         PUBLIC        P0
  D:0090H         PUBLIC        P1
  D:00A0H         PUBLIC        P2
  D:00B0H         PUBLIC        P3
  D:00D8H         PUBLIC        P4
  C:3787H         PUBLIC        ClearUart
  X:0401H         PUBLIC        SMSRecFlag
  C:23E6H         PUBLIC        CheckUrc
  D:00A8H         PUBLIC        IE
  C:2D3DH         PUBLIC        GLCD_IMG_END
  C:2D56H         PUBLIC        MQTT_DISCONNECT
  X:0402H         PUBLIC        TimerForChair
  D:00B8H         PUBLIC        IP
  B:0021H.1       PUBLIC        FlagSystemConnected
  C:2D2BH         PUBLIC        CREG
  X:0404H         PUBLIC        OffTime
  D:0098H         PUBLIC        SCON
  C:2D4CH         PUBLIC        MQTT_CONNECT
  B:0021H.2       PUBLIC        FlagOffAud
  D:0088H         PUBLIC        TCON
  B:0021H.3       PUBLIC        FlagStopAud
  X:0405H         PUBLIC        etxt
  C:2D32H         PUBLIC        GLCD_IMG_START
  B:0021H.4       PUBLIC        FlagChairWorking
  D:00C0H         PUBLIC        I2C0CON
BL51 BANKED LINKER/LOCATER V6.22.4.0                                                  01/20/2024  23:55:42  PAGE 21


  D:00E8H         PUBLIC        I2C1CON
  X:04CDH         PUBLIC        PreUartLine
  C:33A9H         PUBLIC        _DebugPrintf
  D:00F8H         PUBLIC        S1CON
  D:00C8H         PUBLIC        T2CON
  C:3009H         PUBLIC        _NW_Responce_Handler
  C:2D46H         PUBLIC        MCU_TIME
  D:00D0H         PUBLIC        PSW
  -------         PROC          _DEBUGPRINTF
  X:057CH         SYMBOL        fmt
  -------         DO            
  X:057FH         SYMBOL        ellipsis_40
  X:05A7H         SYMBOL        arg_ptr
  -------         ENDDO         
  C:33A9H         LINE#         39
  C:33B4H         LINE#         41
  C:33C2H         LINE#         42
  C:33F5H         LINE#         43
  C:33FEH         LINE#         44
  -------         ENDPROC       _DEBUGPRINTF
  -------         PROC          _NW_RESPONCE_HANDLER
  X:05F0H         SYMBOL        Line
  X:05F3H         SYMBOL        UserData
  C:3009H         LINE#         49
  C:3014H         LINE#         50
  C:3014H         LINE#         51
  C:3019H         LINE#         52
  C:305BH         LINE#         53
  C:308BH         LINE#         54
  C:30ACH         LINE#         55
  C:30DDH         LINE#         56
  -------         ENDPROC       _NW_RESPONCE_HANDLER
  -------         PROC          CHECKURC
  C:23E6H         LINE#         59
  C:23E6H         LINE#         60
  C:23E6H         LINE#         61
  C:23F5H         LINE#         62
  C:23F5H         LINE#         63
  C:23F8H         LINE#         65
  C:241AH         LINE#         98
  C:2442H         LINE#         99
  C:2442H         LINE#         100
  C:2448H         LINE#         101
  C:244DH         LINE#         102
  C:2453H         LINE#         104
  C:2460H         LINE#         105
  C:2460H         LINE#         107
  C:2488H         LINE#         108
  C:2488H         LINE#         109
  C:249BH         LINE#         110
  C:249FH         LINE#         111
  C:24A3H         LINE#         115
  C:24A6H         LINE#         116
  C:24A9H         LINE#         117
  C:24B8H         LINE#         118
  C:24BBH         LINE#         126
  C:24C2H         LINE#         127
BL51 BANKED LINKER/LOCATER V6.22.4.0                                                  01/20/2024  23:55:42  PAGE 22


  C:24CDH         LINE#         128
  C:24D4H         LINE#         129
  C:24DFH         LINE#         133
  C:24DFH         LINE#         136
  C:2507H         LINE#         137
  C:2507H         LINE#         138
  C:2509H         LINE#         139
  C:250CH         LINE#         140
  C:250FH         LINE#         142
  C:250FH         LINE#         144
  C:2537H         LINE#         145
  C:2537H         LINE#         146
  C:2539H         LINE#         147
  C:253CH         LINE#         150
  C:253CH         LINE#         153
  C:2567H         LINE#         154
  C:2567H         LINE#         155
  C:258CH         LINE#         156
  C:25BEH         LINE#         157
  C:25CFH         LINE#         158
  C:25CFH         LINE#         160
  C:25D5H         LINE#         162
  C:25DFH         LINE#         163
  C:25E1H         LINE#         164
  C:25E4H         LINE#         165
  C:25E7H         LINE#         168
  C:25E7H         LINE#         169
  C:25FFH         LINE#         170
  C:25FFH         LINE#         172
  C:2602H         LINE#         173
  C:261AH         LINE#         174
  C:261DH         LINE#         176
  -------         ENDPROC       CHECKURC
  -------         PROC          CLEARUART
  C:3787H         LINE#         178
  C:3787H         LINE#         179
  C:3787H         LINE#         180
  C:3790H         LINE#         181
  C:3794H         LINE#         182
  C:37A1H         LINE#         183
  -------         ENDPROC       CLEARUART
  -------         ENDMOD        RGSM_AT

  -------         MODULE        RDATAFLASH
  C:0000H         SYMBOL        _ICE_DUMMY_
  D:0080H         PUBLIC        P0
  C:38BEH         PUBLIC        Default_Settings
  D:0090H         PUBLIC        P1
  D:00A0H         PUBLIC        P2
  D:00B0H         PUBLIC        P3
  D:00D8H         PUBLIC        P4
  B:00A8H.7       PUBLIC        EA
  D:00A8H         PUBLIC        IE
  X:05F6H         PUBLIC        ResetCount
  D:00C7H         PUBLIC        TA
  D:00B8H         PUBLIC        IP
  B:0021H.5       PUBLIC        BIT_TMP
BL51 BANKED LINKER/LOCATER V6.22.4.0                                                  01/20/2024  23:55:42  PAGE 23


  D:0098H         PUBLIC        SCON
  D:0088H         PUBLIC        TCON
  D:009FH         PUBLIC        CHPCON
  D:0091H         PUBLIC        SFRS
  C:3512H         PUBLIC        _WriteFlashQr
  D:00A5H         PUBLIC        IAPUEN
  D:00A4H         PUBLIC        IAPTRG
  D:00C0H         PUBLIC        I2C0CON
  C:0003H         PUBLIC        _Read_Data_Byte
  D:00E8H         PUBLIC        I2C1CON
  C:35FCH         PUBLIC        _Page_Erase
  C:38B0H         PUBLIC        _ConvertToUINT16
  C:36DBH         PUBLIC        Write_Flash
  C:3332H         PUBLIC        _Write_Data_Byte
  D:00A7H         PUBLIC        IAPAH
  D:00F8H         PUBLIC        S1CON
  D:00AEH         PUBLIC        IAPFD
  D:00C8H         PUBLIC        T2CON
  D:00A6H         PUBLIC        IAPAL
  D:00AFH         PUBLIC        IAPCN
  C:319DH         PUBLIC        ReadFlash
  D:00D0H         PUBLIC        PSW
  -------         PROC          _PAGE_ERASE
  D:0006H         SYMBOL        Add
  C:35FCH         LINE#         9
  C:35FCH         LINE#         10
  C:35FCH         LINE#         11
  C:35FEH         LINE#         12
  C:3601H         LINE#         13
  C:3604H         LINE#         14
  C:361AH         LINE#         15
  C:362FH         LINE#         16
  C:3632H         LINE#         17
  C:3647H         LINE#         18
  -------         ENDPROC       _PAGE_ERASE
  -------         PROC          _WRITE_DATA_BYTE
  D:0006H         SYMBOL        Add
  D:0005H         SYMBOL        Data
  C:3332H         LINE#         20
  C:3332H         LINE#         21
  C:3332H         LINE#         22
  C:3334H         LINE#         23
  C:3337H         LINE#         24
  C:334DH         LINE#         25
  C:3362H         LINE#         26
  C:3365H         LINE#         27
  C:3369H         LINE#         28
  C:337EH         LINE#         29
  C:3393H         LINE#         30
  C:33A8H         LINE#         31
  -------         ENDPROC       _WRITE_DATA_BYTE
  -------         PROC          _READ_DATA_BYTE
  D:0082H         SYMBOL        Add
  -------         DO            
  D:0007H         SYMBOL        rdata
  -------         ENDDO         
  C:0003H         LINE#         35
BL51 BANKED LINKER/LOCATER V6.22.4.0                                                  01/20/2024  23:55:42  PAGE 24


  C:0007H         LINE#         36
  C:0007H         LINE#         38
  C:000AH         LINE#         39
  C:000AH         LINE#         40
  -------         ENDPROC       _READ_DATA_BYTE
  -------         PROC          WRITE_FLASH
  -------         DO            
  X:057EH         SYMBOL        TempVar
  -------         ENDDO         
  C:36DBH         LINE#         42
  C:36DBH         LINE#         43
  C:36DBH         LINE#         45
  C:36E2H         LINE#         46
  C:36E4H         LINE#         47
  C:36EBH         LINE#         48
  C:36F0H         LINE#         49
  C:3706H         LINE#         50
  C:371EH         LINE#         52
  C:3720H         LINE#         53
  -------         ENDPROC       WRITE_FLASH
  -------         PROC          _WRITEFLASHQR
  X:057CH         SYMBOL        Length
  -------         DO            
  D:0002H         SYMBOL        k
  -------         ENDDO         
  C:3512H         LINE#         55
  C:351AH         LINE#         56
  C:351AH         LINE#         57
  C:351DH         LINE#         58
  C:3524H         LINE#         59
  C:3532H         LINE#         60
  C:3532H         LINE#         61
  C:3537H         LINE#         62
  C:3537H         LINE#         63
  C:3542H         LINE#         64
  C:3542H         LINE#         65
  C:3559H         LINE#         66
  C:3560H         LINE#         67
  -------         ENDPROC       _WRITEFLASHQR
  -------         PROC          READFLASH
  -------         DO            
  X:057CH         SYMBOL        TmpCnt
  -------         ENDDO         
  C:319DH         LINE#         69
  C:319DH         LINE#         70
  C:319DH         LINE#         71
  C:31A4H         LINE#         72
  C:31B0H         LINE#         73
  C:31B4H         LINE#         74
  C:31B7H         LINE#         76
  C:31DAH         LINE#         77
  C:31E2H         LINE#         78
  C:31E2H         LINE#         79
  C:31FFH         LINE#         80
  C:31FFH         LINE#         81
  C:321CH         LINE#         82
  C:322CH         LINE#         83
BL51 BANKED LINKER/LOCATER V6.22.4.0                                                  01/20/2024  23:55:42  PAGE 25


  C:322CH         LINE#         85
  -------         ENDPROC       READFLASH
  -------         PROC          _CONVERTTOUINT16
  D:0007H         SYMBOL        Tenth
  D:0005H         SYMBOL        Unit
  C:38B0H         LINE#         87
  C:38B0H         LINE#         88
  C:38B0H         LINE#         89
  C:38BDH         LINE#         90
  -------         ENDPROC       _CONVERTTOUINT16
  -------         PROC          DEFAULT_SETTINGS
  C:38BEH         LINE#         92
  C:38BEH         LINE#         93
  C:38BEH         LINE#         94
  C:38C5H         LINE#         95
  -------         ENDPROC       DEFAULT_SETTINGS
  -------         ENDMOD        RDATAFLASH

  -------         MODULE        RTIMER0
  C:0000H         SYMBOL        _ICE_DUMMY_
  D:0080H         PUBLIC        P0
  D:0090H         PUBLIC        P1
  D:00A0H         PUBLIC        P2
  D:00B0H         PUBLIC        P3
  C:29F1H         PUBLIC        Timer0_ISR
  D:00D8H         PUBLIC        P4
  D:00A8H         PUBLIC        IE
  D:00B8H         PUBLIC        IP
  C:37B0H         PUBLIC        _Timer0_Init
  D:0098H         PUBLIC        SCON
  D:0089H         PUBLIC        TMOD
  D:0088H         PUBLIC        TCON
  B:00B0H.3       PUBLIC        P33
  D:0091H         PUBLIC        SFRS
  B:0088H.5       PUBLIC        TF0
  X:05EAH         PUBLIC        PreStartTime
  D:008CH         PUBLIC        TH0
  D:00C0H         PUBLIC        I2C0CON
  D:008AH         PUBLIC        TL0
  D:00E8H         PUBLIC        I2C1CON
  X:05EBH         PUBLIC        LoadingTime
  X:05ECH         PUBLIC        Timer0Loadvalue
  X:05EEH         PUBLIC        Timer1Loadvalue
  D:00F8H         PUBLIC        S1CON
  D:00C8H         PUBLIC        T2CON
  D:00D0H         PUBLIC        PSW
  -------         PROC          TIMER0_ISR
  -------         DO            
  X:05E8H         SYMBOL        Timer0Count
  -------         ENDDO         
  C:29F1H         LINE#         21
  C:2A0EH         LINE#         24
  C:2A1CH         LINE#         26
  C:2A38H         LINE#         27
  C:2A38H         LINE#         28
  C:2A3BH         LINE#         30
  C:2A3EH         LINE#         31
BL51 BANKED LINKER/LOCATER V6.22.4.0                                                  01/20/2024  23:55:42  PAGE 26


  C:2A3EH         LINE#         32
  C:2A40H         LINE#         33
  C:2A48H         LINE#         34
  C:2A4AH         LINE#         35
  C:2A4AH         LINE#         36
  C:2A4AH         LINE#         38
  C:2A5DH         LINE#         39
  C:2A5DH         LINE#         40
  C:2A63H         LINE#         41
  C:2A63H         LINE#         42
  C:2A71H         LINE#         45
  C:2A78H         LINE#         46
  C:2A78H         LINE#         47
  C:2A7AH         LINE#         48
  C:2A7DH         LINE#         49
  C:2A7DH         LINE#         50
  C:2A7FH         LINE#         51
  C:2A82H         LINE#         52
  C:2A84H         LINE#         54
  C:2A84H         LINE#         55
  C:2A86H         LINE#         57
  C:2A89H         LINE#         58
  C:2A8FH         LINE#         59
  C:2A8FH         LINE#         60
  C:2A8FH         LINE#         61
  C:2A91H         LINE#         62
  C:2A9AH         LINE#         63
  C:2A9AH         LINE#         64
  C:2A9DH         LINE#         65
  C:2AA0H         LINE#         66
  C:2AA0H         LINE#         67
  C:2AA3H         LINE#         68
  C:2AC0H         LINE#         69
  C:2AC2H         LINE#         70
  C:2AC2H         LINE#         71
  C:2AC2H         LINE#         72
  C:2AC2H         LINE#         75
  C:2AD5H         LINE#         76
  C:2AD5H         LINE#         77
  C:2ADBH         LINE#         78
  C:2ADEH         LINE#         79
  C:2ADEH         LINE#         81
  C:2AF5H         LINE#         82
  C:2AFCH         LINE#         84
  C:2B0CH         LINE#         85
  C:2B12H         LINE#         86
  -------         ENDPROC       TIMER0_ISR
  -------         PROC          _TIMER0_INIT
  D:0007H         SYMBOL        Msec
  C:37B0H         LINE#         97
  C:37B0H         LINE#         98
  C:37B0H         LINE#         99
  C:37B3H         LINE#         100
  C:37CBH         LINE#         101
  C:37D8H         LINE#         102
  -------         ENDPROC       _TIMER0_INIT
  -------         ENDMOD        RTIMER0
BL51 BANKED LINKER/LOCATER V6.22.4.0                                                  01/20/2024  23:55:42  PAGE 27



  -------         MODULE        ?C?CLDPTR
  C:1741H         PUBLIC        ?C?CLDPTR
  -------         ENDMOD        ?C?CLDPTR

  -------         MODULE        ?C?CLDOPTR
  C:175AH         PUBLIC        ?C?CLDOPTR
  -------         ENDMOD        ?C?CLDOPTR

  -------         MODULE        ?C?IMUL
  C:1787H         PUBLIC        ?C?IMUL
  -------         ENDMOD        ?C?IMUL

  -------         MODULE        ?C?UIDIV
  C:1799H         PUBLIC        ?C?UIDIV
  -------         ENDMOD        ?C?UIDIV

  -------         MODULE        ?C?ULDIV
  C:182AH         PUBLIC        ?C?ULDIV
  -------         ENDMOD        ?C?ULDIV

  -------         MODULE        ?C?SLCMP
  C:18BCH         PUBLIC        ?C?SLCMP
  -------         ENDMOD        ?C?SLCMP

  -------         MODULE        ?C?ULSHR
  C:18D2H         PUBLIC        ?C?ULSHR
  -------         ENDMOD        ?C?ULSHR

  -------         MODULE        ?C?LSTXDATA
  C:18E5H         PUBLIC        ?C?LSTXDATA
  -------         ENDMOD        ?C?LSTXDATA

  -------         MODULE        ?C?LSTKXDATA
  C:18F1H         PUBLIC        ?C?LSTKXDATA
  -------         ENDMOD        ?C?LSTKXDATA

  -------         MODULE        SCANF
  X:057CH         PUBLIC        ?_SCANF517?BYTE
  X:057CH         PUBLIC        ?_SCANF?BYTE
  X:057CH         PUBLIC        ?_SSCANF517?BYTE
  X:057CH         PUBLIC        ?_SSCANF?BYTE
  C:1F16H         PUBLIC        _SCANF
  C:1F16H         PUBLIC        _SCANF517
  C:1F12H         PUBLIC        _SSCANF
  C:1F12H         PUBLIC        _SSCANF517
  -------         ENDMOD        SCANF

  -------         MODULE        ?C?STRCPY
  C:19EEH         PUBLIC        ?C?STRCPY
  -------         ENDMOD        ?C?STRCPY

  -------         MODULE        STRSTR
  X:057CH         PUBLIC        ?_strstr?BYTE
  C:30DEH         PUBLIC        _strstr
  -------         ENDMOD        STRSTR

BL51 BANKED LINKER/LOCATER V6.22.4.0                                                  01/20/2024  23:55:42  PAGE 28


  -------         MODULE        ?C?MEMSET
  C:1A0BH         PUBLIC        ?C?MEMSET
  -------         ENDMOD        ?C?MEMSET

  -------         MODULE        VSPRINTF
  X:05A7H         PUBLIC        ?_VSPRINTF?BYTE
  C:3648H         PUBLIC        _VSPRINTF
  -------         ENDMOD        VSPRINTF

  -------         MODULE        ?C?CSTPTR
  C:1A37H         PUBLIC        ?C?CSTPTR
  -------         ENDMOD        ?C?CSTPTR

  -------         MODULE        ?C?IILDX
  C:1A49H         PUBLIC        ?C?IILDX
  -------         ENDMOD        ?C?IILDX

  -------         MODULE        ?C?ISTPTR
  C:1A5FH         PUBLIC        ?C?ISTPTR
  -------         ENDMOD        ?C?ISTPTR

  -------         MODULE        ?C?LNEG
  C:1A7EH         PUBLIC        ?C?LNEG
  -------         ENDMOD        ?C?LNEG

  -------         MODULE        ?C?LSTPTR
  C:1A8CH         PUBLIC        ?C?LSTPTR
  -------         ENDMOD        ?C?LSTPTR

  -------         MODULE        ?C?PLDXDATA
  C:1AA6H         PUBLIC        ?C?PLDXDATA
  -------         ENDMOD        ?C?PLDXDATA

  -------         MODULE        ?C?PLDIXDATA
  C:1AAFH         PUBLIC        ?C?PLDIXDATA
  -------         ENDMOD        ?C?PLDIXDATA

  -------         MODULE        ?C?PILDXDATA
  C:1AC6H         PUBLIC        ?C?PILDXDATA
  -------         ENDMOD        ?C?PILDXDATA

  -------         MODULE        ?C?PSTXDATA
  C:1ADDH         PUBLIC        ?C?PSTXDATA
  -------         ENDMOD        ?C?PSTXDATA

  -------         MODULE        ?C?CCASE
  C:1AE6H         PUBLIC        ?C?CCASE
  -------         ENDMOD        ?C?CCASE

  -------         MODULE        PRINTF
  X:05B0H         PUBLIC        ?_PRINTF517?BYTE
  X:05B0H         PUBLIC        ?_PRINTF?BYTE
  X:05B0H         PUBLIC        ?_SPRINTF517?BYTE
  X:05B0H         PUBLIC        ?_SPRINTF?BYTE
  C:1B8FH         PUBLIC        _PRINTF
  C:1B8FH         PUBLIC        _PRINTF517
  C:1B89H         PUBLIC        _SPRINTF
BL51 BANKED LINKER/LOCATER V6.22.4.0                                                  01/20/2024  23:55:42  PAGE 29


  C:1B89H         PUBLIC        _SPRINTF517
  -------         ENDMOD        PRINTF

  -------         MODULE        GETCHAR
  B:0021H.6       PUBLIC        ?C?CHARLOADED
  X:05F7H         PUBLIC        ?_UNGETCHAR?BYTE
  C:000EH         PUBLIC        GETCHAR
  -------         ENDMOD        GETCHAR

  -------         MODULE        UNGETC
  C:38D2H         PUBLIC        _UNGETCHAR
  -------         ENDMOD        UNGETC

  -------         MODULE        ISSPACE
  C:389CH         PUBLIC        _isspace
  -------         ENDMOD        ISSPACE

  -------         MODULE        ?C?LSTIDATA
  C:1B0CH         PUBLIC        ?C?LSTIDATA
  -------         ENDMOD        ?C?LSTIDATA

  -------         MODULE        ?C?LSTPDATA
  C:1B18H         PUBLIC        ?C?LSTPDATA
  -------         ENDMOD        ?C?LSTPDATA

  -------         MODULE        PUTCHAR
  C:37D9H         PUBLIC        _PUTCHAR
  -------         ENDMOD        PUTCHAR

  -------         MODULE        _GETKEY
  C:38C8H         PUBLIC        _GETKEY
  -------         ENDMOD        _GETKEY

*** WARNING L16: UNCALLED SEGMENT, IGNORED FOR OVERLAY PROCESS
    SEGMENT: ?PR?_UART_RECEIVE_DATA?UART

*** WARNING L16: UNCALLED SEGMENT, IGNORED FOR OVERLAY PROCESS
    SEGMENT: ?PR?UART0_LIRC_BAUDRATE2400_OPEN?UART

*** WARNING L16: UNCALLED SEGMENT, IGNORED FOR OVERLAY PROCESS
    SEGMENT: ?PR?_NW_RESPONCE_HANDLER?RGSM_AT

*** WARNING L16: UNCALLED SEGMENT, IGNORED FOR OVERLAY PROCESS
    SEGMENT: ?PR?_CONVERTTOUINT16?RDATAFLASH

*** WARNING L15: MULTIPLE CALL TO SEGMENT
    SEGMENT: ?PR?GLCD_CLEARALL?GLCD
    CALLER1: ?C_C51STARTUP
    CALLER2: ?PR?TIMER0_ISR?RTIMER0

*** WARNING L15: MULTIPLE CALL TO SEGMENT
    SEGMENT: ?PR?_GLCD_IMAGE?GLCD
    CALLER1: ?C_C51STARTUP
    CALLER2: ?PR?TIMER0_ISR?RTIMER0

Program Size: data=15.7 xdata=1528 code=14553
LINK/LOCATE RUN COMPLETE.  6 WARNING(S),  0 ERROR(S)
