BL51 BANKED LINKER/LOCATER V6.22.4.0                                                    01/21/2024  13:17:52  PAGE 1


BL51 BANKED LINKER/LOCATER V6.22.4.0, INVOKED BY:
C:\KEIL_V5\C51\BIN\BL51.EXE .\Objects\STARTUP.obj, .\Objects\Main.obj, .\Objects\GLCD.obj, .\Objects\uart.obj, .\Objects
>> \RGsm_At.obj, .\Objects\RDataFlash.obj, .\Objects\RTimer0.obj TO .\Objects\newGLCD_test_Audio_2101 PRINT (.\Listings\
>> newGLCD_test_Audio_2101.m51) RAMSIZE (256)


MEMORY MODEL: LARGE


INPUT MODULES INCLUDED:
  .\Objects\STARTUP.obj (?C_STARTUP)
  .\Objects\Main.obj (MAIN)
  .\Objects\GLCD.obj (GLCD)
  .\Objects\uart.obj (UART)
  .\Objects\RGsm_At.obj (RGSM_AT)
  .\Objects\RDataFlash.obj (RDATAFLASH)
  .\Objects\RTimer0.obj (RTIMER0)
  C:\KEIL_V5\C51\LIB\C51L.LIB (?C_INIT)
  C:\KEIL_V5\C51\LIB\C51L.LIB (?C?CLDPTR)
  C:\KEIL_V5\C51\LIB\C51L.LIB (?C?CLDOPTR)
  C:\KEIL_V5\C51\LIB\C51L.LIB (?C?IMUL)
  C:\KEIL_V5\C51\LIB\C51L.LIB (?C?UIDIV)
  C:\KEIL_V5\C51\LIB\C51L.LIB (?C?ULDIV)
  C:\KEIL_V5\C51\LIB\C51L.LIB (?C?SLCMP)
  C:\KEIL_V5\C51\LIB\C51L.LIB (?C?ULSHR)
  C:\KEIL_V5\C51\LIB\C51L.LIB (?C?LSTXDATA)
  C:\KEIL_V5\C51\LIB\C51L.LIB (?C?LSTKXDATA)
  C:\KEIL_V5\C51\LIB\C51L.LIB (SCANF)
  C:\KEIL_V5\C51\LIB\C51L.LIB (?C?STRCPY)
  C:\KEIL_V5\C51\LIB\C51L.LIB (STRSTR)
  C:\KEIL_V5\C51\LIB\C51L.LIB (?C?MEMSET)
  C:\KEIL_V5\C51\LIB\C51L.LIB (VSPRINTF)
  C:\KEIL_V5\C51\LIB\C51L.LIB (?C?CSTPTR)
  C:\KEIL_V5\C51\LIB\C51L.LIB (?C?IILDX)
  C:\KEIL_V5\C51\LIB\C51L.LIB (?C?ISTPTR)
  C:\KEIL_V5\C51\LIB\C51L.LIB (?C?LNEG)
  C:\KEIL_V5\C51\LIB\C51L.LIB (?C?LSTPTR)
  C:\KEIL_V5\C51\LIB\C51L.LIB (?C?PLDXDATA)
  C:\KEIL_V5\C51\LIB\C51L.LIB (?C?PLDIXDATA)
  C:\KEIL_V5\C51\LIB\C51L.LIB (?C?PILDXDATA)
  C:\KEIL_V5\C51\LIB\C51L.LIB (?C?PSTXDATA)
  C:\KEIL_V5\C51\LIB\C51L.LIB (?C?CCASE)
  C:\KEIL_V5\C51\LIB\C51L.LIB (PRINTF)
  C:\KEIL_V5\C51\LIB\C51L.LIB (GETCHAR)
  C:\KEIL_V5\C51\LIB\C51L.LIB (UNGETC)
  C:\KEIL_V5\C51\LIB\C51L.LIB (ISSPACE)
  C:\KEIL_V5\C51\LIB\C51L.LIB (?C?LSTIDATA)
  C:\KEIL_V5\C51\LIB\C51L.LIB (?C?LSTPDATA)
  C:\KEIL_V5\C51\LIB\C51L.LIB (PUTCHAR)
  C:\KEIL_V5\C51\LIB\C51L.LIB (_GETKEY)


LINK MAP OF MODULE:  .\Objects\newGLCD_test_Audio_2101 (?C_STARTUP)


            TYPE    BASE      LENGTH    RELOCATION   SEGMENT NAME
            -----------------------------------------------------

BL51 BANKED LINKER/LOCATER V6.22.4.0                                                  01/21/2024  13:17:52  PAGE 2


            * * * * * * *   D A T A   M E M O R Y   * * * * * * *
            REG     0000H     0008H     ABSOLUTE     "REG BANK 0"
            DATA    0008H     0005H     UNIT         _DATA_GROUP_
                    000DH     0013H                  *** GAP ***
            BIT     0020H.0   0001H.1   UNIT         _BIT_GROUP_
            BIT     0021H.1   0000H.4   UNIT         ?BI?RGSM_AT
            BIT     0021H.5   0000H.1   UNIT         ?BI?RDATAFLASH
            BIT     0021H.6   0000H.1   UNIT         ?BI?GETCHAR
                    0021H.7   0000H.1                *** GAP ***
            IDATA   0022H     0001H     UNIT         ?STACK

            * * * * * * *  X D A T A   M E M O R Y  * * * * * * *
            XDATA   0000H     0401H     UNIT         ?XD?GLCD
            XDATA   0401H     00CDH     UNIT         ?XD?RGSM_AT
            XDATA   04CEH     00A7H     UNIT         ?XD?UART
            XDATA   0575H     0073H     UNIT         _XDATA_GROUP_
            XDATA   05E8H     0008H     UNIT         ?XD?RTIMER0
            XDATA   05F0H     0006H     UNIT         ?XD?_NW_RESPONCE_HANDLER?RGSM_AT
            XDATA   05F6H     0001H     UNIT         ?XD?RDATAFLASH
            XDATA   05F7H     0001H     UNIT         ?XD?GETCHAR

            * * * * * * *   C O D E   M E M O R Y   * * * * * * *
            CODE    0000H     0003H     ABSOLUTE     
            CODE    0003H     0008H     UNIT         ?PR?_READ_DATA_BYTE?RDATAFLASH
            CODE    000BH     0003H     ABSOLUTE     
            CODE    000EH     0014H     UNIT         ?PR?GETCHAR?GETCHAR
                    0022H     0001H                  *** GAP ***
            CODE    0023H     0003H     ABSOLUTE     
            CODE    0026H     171BH     UNIT         ?CO?MAIN
            CODE    1741H     03E3H     UNIT         ?C?LIB_CODE
            CODE    1B24H     0365H     UNIT         ?PR?PRINTF?PRINTF
            CODE    1E89H     0322H     UNIT         ?PR?SCANF?SCANF
            CODE    21ABH     023BH     UNIT         ?PR?_UART_OPEN?UART
            CODE    23E6H     0237H     UNIT         ?PR?CHECKURC?RGSM_AT
            CODE    261DH     0232H     UNIT         ?PR?MAIN?MAIN
            CODE    284FH     01E7H     UNIT         ?PR?SERIAL_ISR?UART
            CODE    2A36H     0139H     UNIT         ?PR?TIMER0_ISR?RTIMER0
            CODE    2B6FH     0134H     UNIT         ?PR?_DISPLAYNUM?GLCD
            CODE    2CA3H     0102H     UNIT         ?CO?RGSM_AT
            CODE    2DA5H     00E7H     UNIT         ?PR?_GLCD_IMAGE?GLCD
            CODE    2E8CH     00E4H     UNIT         ?PR?_GLCD_DATA?GLCD
            CODE    2F70H     00DBH     UNIT         ?PR?_SHOWREMAINIGTIME?GLCD
            CODE    304BH     00D5H     UNIT         ?PR?_NW_RESPONCE_HANDLER?RGSM_AT
            CODE    3120H     00BFH     UNIT         ?PR?_STRSTR?STRSTR
            CODE    31DFH     0090H     UNIT         ?PR?READFLASH?RDATAFLASH
            CODE    326FH     008CH     UNIT         ?C_C51STARTUP
            CODE    32FBH     0079H     UNIT         ?PR?_UART_INTERRUPT_ENABLE?UART
            CODE    3374H     0077H     UNIT         ?PR?_WRITE_DATA_BYTE?RDATAFLASH
            CODE    33EBH     0060H     UNIT         ?PR?_DEBUGPRINTF?RGSM_AT
            CODE    344BH     005FH     UNIT         ?PR?_UART_SEND_DATA?UART
            CODE    34AAH     005AH     UNIT         ?PR?GLCD_CLEARALL?GLCD
            CODE    3504H     0050H     UNIT         ?PR?_UART_RECEIVE_DATA?UART
            CODE    3554H     004FH     UNIT         ?PR?_WRITEFLASHQR?RDATAFLASH
            CODE    35A3H     004EH     UNIT         ?C_INITSEG
            CODE    35F1H     004DH     UNIT         ?PR?LOADINGSCREEN?GLCD
            CODE    363EH     004CH     UNIT         ?PR?_PAGE_ERASE?RDATAFLASH
            CODE    368AH     004AH     UNIT         ?PR?_VSPRINTF?VSPRINTF
BL51 BANKED LINKER/LOCATER V6.22.4.0                                                  01/21/2024  13:17:52  PAGE 3


            CODE    36D4H     0049H     UNIT         ?PR?_UART_SEND_STRING?UART
            CODE    371DH     0046H     UNIT         ?PR?WRITE_FLASH?RDATAFLASH
            CODE    3763H     0038H     UNIT         ?PR?GLCD_INIT?GLCD
            CODE    379BH     002EH     UNIT         ?PR?_GLCD_SETCURSOR?GLCD
            CODE    37C9H     0029H     UNIT         ?PR?CLEARUART?RGSM_AT
            CODE    37F2H     0029H     UNIT         ?PR?_TIMER0_INIT?RTIMER0
            CODE    381BH     0027H     UNIT         ?PR?PUTCHAR?PUTCHAR
            CODE    3842H     0021H     UNIT         ?PR?CHAIRANIMATION?GLCD
            CODE    3863H     0021H     UNIT         ?PR?UART0_LIRC_BAUDRATE2400_OPEN?UART
            CODE    3884H     0020H     UNIT         ?PR?_DELAY_1MS?GLCD
            CODE    38A4H     001FH     UNIT         ?PR?QRSCREEN?GLCD
            CODE    38C3H     001BH     UNIT         ?PR?_GLCD_COMMAND?GLCD
            CODE    38DEH     0014H     UNIT         ?PR?_ISSPACE?ISSPACE
            CODE    38F2H     000EH     UNIT         ?PR?_CONVERTTOUINT16?RDATAFLASH
            CODE    3900H     000AH     UNIT         ?PR?DEFAULT_SETTINGS?RDATAFLASH
            CODE    390AH     000AH     UNIT         ?PR?_GETKEY?_GETKEY
            CODE    3914H     0008H     UNIT         ?PR?GETCHAR?UNGETCHAR



OVERLAY MAP OF MODULE:   .\Objects\newGLCD_test_Audio_2101 (?C_STARTUP)


SEGMENT                                          BIT_GROUP          DATA_GROUP          XDATA_GROUP
  +--> CALLED SEGMENT                         START    LENGTH     START    LENGTH     START    LENGTH
-----------------------------------------------------------------------------------------------------
?C_C51STARTUP                                 -----    -----      -----    -----      -----    -----
  +--> ?PR?MAIN?MAIN
  +--> ?C_INITSEG

?PR?MAIN?MAIN                                 -----    -----      -----    -----      0575H    0007H
  +--> ?PR?READFLASH?RDATAFLASH
  +--> ?PR?_UART_OPEN?UART
  +--> ?PR?_UART_INTERRUPT_ENABLE?UART
  +--> ?PR?GLCD_INIT?GLCD
  +--> ?PR?GLCD_CLEARALL?GLCD
  +--> ?PR?_TIMER0_INIT?RTIMER0
  +--> ?PR?CLEARUART?RGSM_AT
  +--> ?CO?MAIN
  +--> ?PR?_UART_SEND_STRING?UART
  +--> ?PR?_DEBUGPRINTF?RGSM_AT
  +--> ?PR?CHECKURC?RGSM_AT
  +--> ?PR?CHAIRANIMATION?GLCD
  +--> ?PR?_DELAY_1MS?GLCD
  +--> ?PR?_SHOWREMAINIGTIME?GLCD

?PR?READFLASH?RDATAFLASH                      -----    -----      -----    -----      057CH    0002H
  +--> ?PR?_READ_DATA_BYTE?RDATAFLASH
  +--> ?PR?DEFAULT_SETTINGS?RDATAFLASH

?PR?DEFAULT_SETTINGS?RDATAFLASH               -----    -----      -----    -----      -----    -----
  +--> ?PR?WRITE_FLASH?RDATAFLASH

?PR?WRITE_FLASH?RDATAFLASH                    -----    -----      -----    -----      057EH    0002H
  +--> ?PR?_PAGE_ERASE?RDATAFLASH
  +--> ?PR?_WRITE_DATA_BYTE?RDATAFLASH

BL51 BANKED LINKER/LOCATER V6.22.4.0                                                  01/21/2024  13:17:52  PAGE 4


?PR?_UART_OPEN?UART                           -----    -----      -----    -----      057CH    0009H

?PR?GLCD_INIT?GLCD                            -----    -----      -----    -----      -----    -----
  +--> ?PR?_DELAY_1MS?GLCD
  +--> ?PR?_GLCD_COMMAND?GLCD

?PR?_GLCD_COMMAND?GLCD                        -----    -----      -----    -----      -----    -----
  +--> ?PR?_DELAY_1MS?GLCD

?PR?GLCD_CLEARALL?GLCD                        -----    -----      -----    -----      05D9H    0002H
  +--> ?PR?_GLCD_COMMAND?GLCD
  +--> ?PR?_GLCD_DATA?GLCD

?PR?_UART_SEND_STRING?UART                    -----    -----      -----    -----      -----    -----
  +--> ?PR?_UART_SEND_DATA?UART

?PR?_DEBUGPRINTF?RGSM_AT                      -----    -----      -----    -----      057CH    002EH
  +--> ?PR?_VSPRINTF?VSPRINTF
  +--> ?PR?_UART_SEND_STRING?UART

?PR?_VSPRINTF?VSPRINTF                        -----    -----      -----    -----      05AAH    0006H
  +--> ?PR?PRINTF?PRINTF

?PR?PRINTF?PRINTF                             0020H.0  0001H.1    0008H    0005H      05B0H    0028H
  +--> ?PR?PUTCHAR?PUTCHAR

?PR?CHECKURC?RGSM_AT                          -----    -----      -----    -----      -----    -----
  +--> ?CO?RGSM_AT
  +--> ?PR?_DEBUGPRINTF?RGSM_AT
  +--> ?PR?_STRSTR?STRSTR
  +--> ?PR?_WRITEFLASHQR?RDATAFLASH
  +--> ?PR?WRITE_FLASH?RDATAFLASH
  +--> ?PR?READFLASH?RDATAFLASH
  +--> ?PR?_DELAY_1MS?GLCD
  +--> ?PR?_UART_SEND_STRING?UART
  +--> ?PR?GLCD_CLEARALL?GLCD
  +--> ?PR?QRSCREEN?GLCD
  +--> ?PR?SCANF?SCANF
  +--> ?PR?CHAIRANIMATION?GLCD
  +--> ?PR?CLEARUART?RGSM_AT

?PR?_STRSTR?STRSTR                            -----    -----      -----    -----      057CH    000CH

?PR?_WRITEFLASHQR?RDATAFLASH                  -----    -----      -----    -----      057CH    0002H
  +--> ?PR?_PAGE_ERASE?RDATAFLASH
  +--> ?PR?_WRITE_DATA_BYTE?RDATAFLASH

?PR?QRSCREEN?GLCD                             -----    -----      -----    -----      -----    -----
  +--> ?PR?GLCD_CLEARALL?GLCD
  +--> ?PR?_GLCD_IMAGE?GLCD

?PR?_GLCD_IMAGE?GLCD                          -----    -----      -----    -----      05D9H    000FH
  +--> ?PR?_GLCD_SETCURSOR?GLCD
  +--> ?PR?_GLCD_DATA?GLCD

?PR?_GLCD_SETCURSOR?GLCD                      -----    -----      -----    -----      -----    -----
  +--> ?PR?_GLCD_COMMAND?GLCD
BL51 BANKED LINKER/LOCATER V6.22.4.0                                                  01/21/2024  13:17:52  PAGE 5



?PR?SCANF?SCANF                               0020H.0  0000H.6    0008H    0005H      057CH    002EH
  +--> ?PR?GETCHAR?UNGETCHAR
  +--> ?PR?_ISSPACE?ISSPACE
  +--> ?PR?GETCHAR?GETCHAR

?PR?GETCHAR?GETCHAR                           -----    -----      -----    -----      -----    -----
  +--> ?PR?_GETKEY?_GETKEY
  +--> ?PR?PUTCHAR?PUTCHAR

?PR?CHAIRANIMATION?GLCD                       -----    -----      -----    -----      -----    -----
  +--> ?PR?GLCD_CLEARALL?GLCD
  +--> ?CO?MAIN
  +--> ?PR?_GLCD_IMAGE?GLCD

?PR?_SHOWREMAINIGTIME?GLCD                    -----    -----      -----    -----      057CH    000AH
  +--> ?PR?_DISPLAYNUM?GLCD

?PR?_DISPLAYNUM?GLCD                          -----    -----      -----    -----      0586H    0004H
  +--> ?CO?MAIN
  +--> ?PR?_GLCD_IMAGE?GLCD

*** NEW ROOT ***************************************************

?PR?SERIAL_ISR?UART                           -----    -----      -----    -----      05D8H    0001H

*** NEW ROOT ***************************************************

?PR?TIMER0_ISR?RTIMER0                        -----    -----      -----    -----      -----    -----
  +--> ?PR?QRSCREEN?GLCD
  +--> ?PR?GLCD_CLEARALL?GLCD
  +--> ?CO?MAIN
  +--> ?PR?_GLCD_IMAGE?GLCD
  +--> ?PR?LOADINGSCREEN?GLCD

?PR?LOADINGSCREEN?GLCD                        -----    -----      -----    -----      -----    -----
  +--> ?PR?GLCD_CLEARALL?GLCD
  +--> ?CO?MAIN
  +--> ?PR?_GLCD_IMAGE?GLCD



SYMBOL TABLE OF MODULE:  .\Objects\newGLCD_test_Audio_2101 (?C_STARTUP)

  VALUE           TYPE          NAME
  ----------------------------------

  -------         MODULE        ?C_STARTUP
  C:326FH         SEGMENT       ?C_C51STARTUP
  I:0022H         SEGMENT       ?STACK
  C:0000H         PUBLIC        ?C_STARTUP
  D:00E0H         SYMBOL        ACC
  D:00F0H         SYMBOL        B
  D:0083H         SYMBOL        DPH
  D:0082H         SYMBOL        DPL
  N:0000H         SYMBOL        IBPSTACK
  N:0100H         SYMBOL        IBPSTACKTOP
BL51 BANKED LINKER/LOCATER V6.22.4.0                                                  01/21/2024  13:17:52  PAGE 6


  N:0080H         SYMBOL        IDATALEN
  C:3272H         SYMBOL        IDATALOOP
  N:0000H         SYMBOL        PBPSTACK
  N:0100H         SYMBOL        PBPSTACKTOP
  N:0000H         SYMBOL        PDATALEN
  N:0000H         SYMBOL        PDATASTART
  N:0000H         SYMBOL        PPAGE
  N:0000H         SYMBOL        PPAGEENABLE
  D:00A0H         SYMBOL        PPAGE_SFR
  D:0081H         SYMBOL        SP
  C:326FH         SYMBOL        STARTUP1
  N:0000H         SYMBOL        XBPSTACK
  N:0000H         SYMBOL        XBPSTACKTOP
  N:0000H         SYMBOL        XDATALEN
  N:0000H         SYMBOL        XDATASTART
  C:0000H         LINE#         126
  C:326FH         LINE#         133
  C:3271H         LINE#         134
  C:3272H         LINE#         135
  C:3273H         LINE#         136
  C:3275H         LINE#         185
  C:3278H         LINE#         196
  -------         ENDMOD        ?C_STARTUP

  -------         MODULE        MAIN
  C:0000H         SYMBOL        _ICE_DUMMY_
  D:00B1H         PUBLIC        P0M1
  D:00B3H         PUBLIC        P1M1
  D:00B2H         PUBLIC        P0M2
  D:0080H         PUBLIC        P0
  D:00B5H         PUBLIC        P2M1
  D:00B4H         PUBLIC        P1M2
  D:0090H         PUBLIC        P1
  D:00C2H         PUBLIC        P3M1
  D:00B6H         PUBLIC        P2M2
  D:00A0H         PUBLIC        P2
  D:00F1H         PUBLIC        P1MF76
  D:00C3H         PUBLIC        P3M2
  D:00B9H         PUBLIC        P4M1
  D:00B0H         PUBLIC        P3
  C:1501H         PUBLIC        Seven
  D:00BDH         PUBLIC        P5M1
  D:00BAH         PUBLIC        P4M2
  D:00D8H         PUBLIC        P4
  D:00BEH         PUBLIC        P5M2
  D:00B1H         PUBLIC        P5
  B:00A8H.7       PUBLIC        EA
  C:1681H         PUBLIC        Nine
  C:1381H         PUBLIC        Five
  D:00A8H         PUBLIC        IE
  C:0791H         PUBLIC        chair_left
  D:00B8H         PUBLIC        IP
  C:12C1H         PUBLIC        Four
  C:0FC1H         PUBLIC        Zero
  C:1081H         PUBLIC        One
  C:261DH         PUBLIC        main
  C:0C91H         PUBLIC        loading_up
BL51 BANKED LINKER/LOCATER V6.22.4.0                                                  01/21/2024  13:17:52  PAGE 7


  C:0EC1H         PUBLIC        Remaining_time
  D:0098H         PUBLIC        SCON
  C:1441H         PUBLIC        Six
  D:0088H         PUBLIC        TCON
  B:00B0H.3       PUBLIC        P33
  C:1141H         PUBLIC        Two
  C:0091H         PUBLIC        img
  D:0091H         PUBLIC        SFRS
  B:00A8H.1       PUBLIC        ET0
  B:0088H.5       PUBLIC        TF0
  D:00C0H         PUBLIC        I2C0CON
  D:00E8H         PUBLIC        I2C1CON
  B:0088H.4       PUBLIC        TR0
  C:0691H         PUBLIC        paytmlogo
  D:00F8H         PUBLIC        S1CON
  D:00C8H         PUBLIC        T2CON
  C:0DA9H         PUBLIC        loading_side
  C:0A11H         PUBLIC        chair_Right
  C:0491H         PUBLIC        img2
  C:15C1H         PUBLIC        Eight
  D:00EBH         PUBLIC        P4MF10
  C:1201H         PUBLIC        Three
  D:00EFH         PUBLIC        P5MF10
  D:00D0H         PUBLIC        PSW
  -------         PROC          MAIN
  -------         DO            
  X:0575H         SYMBOL        x
  X:0576H         SYMBOL        y
  X:0577H         SYMBOL        page
  X:0578H         SYMBOL        Data
  -------         DO            
  X:0579H         SYMBOL        Cnt
  -------         DO            
  X:057BH         SYMBOL        SwInput
  -------         ENDDO         
  -------         ENDDO         
  -------         ENDDO         
  C:261DH         LINE#         428
  C:261DH         LINE#         429
  C:261DH         LINE#         430
  C:2628H         LINE#         431
  C:2634H         LINE#         432
  C:263DH         LINE#         433
  C:2646H         LINE#         434
  C:264FH         LINE#         436
  C:2658H         LINE#         437
  C:2661H         LINE#         438
  C:266AH         LINE#         439
  C:2673H         LINE#         441
  C:267CH         LINE#         442
  C:2685H         LINE#         443
  C:268EH         LINE#         446
  C:2697H         LINE#         447
  C:26A0H         LINE#         449
  C:26A9H         LINE#         451
  C:26ABH         LINE#         454
  C:26B4H         LINE#         455
BL51 BANKED LINKER/LOCATER V6.22.4.0                                                  01/21/2024  13:17:52  PAGE 8


  C:26BDH         LINE#         456
  C:26C6H         LINE#         457
  C:26CFH         LINE#         461
  C:26D8H         LINE#         462
  C:26E1H         LINE#         463
  C:26EAH         LINE#         464
  C:26F3H         LINE#         469
  C:26FCH         LINE#         470
  C:2705H         LINE#         471
  C:270EH         LINE#         472
  C:2717H         LINE#         475
  C:271AH         LINE#         479
  C:2733H         LINE#         480
  C:273AH         LINE#         481
  C:273CH         LINE#         485
  C:2755H         LINE#         488
  C:276EH         LINE#         493
  C:2771H         LINE#         494
  C:2774H         LINE#         496
  C:2779H         LINE#         497
  C:277FH         LINE#         500
  C:277FH         LINE#         501
  C:277FH         LINE#         503
  C:2789H         LINE#         505
  C:278CH         LINE#         543
  C:2797H         LINE#         544
  C:27A0H         LINE#         545
  C:27A0H         LINE#         546
  C:27A0H         LINE#         547
  C:27A5H         LINE#         548
  C:27A8H         LINE#         549
  C:27ABH         LINE#         550
  C:27ABH         LINE#         551
  C:27ADH         LINE#         552
  C:27B8H         LINE#         553
  C:27BBH         LINE#         554
  C:27BEH         LINE#         555
  C:27BEH         LINE#         557
  C:27C1H         LINE#         558
  C:27C1H         LINE#         559
  C:27C3H         LINE#         560
  C:27CEH         LINE#         561
  C:27CEH         LINE#         563
  C:27D8H         LINE#         564
  C:27D8H         LINE#         565
  C:27E3H         LINE#         566
  C:27EAH         LINE#         567
  C:27EAH         LINE#         569
  C:2803H         LINE#         570
  C:2803H         LINE#         571
  C:2806H         LINE#         573
  C:2806H         LINE#         576
  C:2809H         LINE#         577
  C:280FH         LINE#         578
  C:2825H         LINE#         579
  C:2828H         LINE#         580
  C:282FH         LINE#         581
BL51 BANKED LINKER/LOCATER V6.22.4.0                                                  01/21/2024  13:17:52  PAGE 9


  C:2832H         LINE#         582
  C:2838H         LINE#         583
  C:283CH         LINE#         584
  C:283CH         LINE#         585
  C:2845H         LINE#         586
  C:2845H         LINE#         587
  C:284CH         LINE#         588
  C:284CH         LINE#         590
  -------         ENDPROC       MAIN
  -------         ENDMOD        MAIN

  -------         MODULE        GLCD
  C:0000H         SYMBOL        _ICE_DUMMY_
  D:0080H         PUBLIC        P0
  C:34AAH         PUBLIC        GLCD_ClearAll
  D:0090H         PUBLIC        P1
  D:00A0H         PUBLIC        P2
  D:00B0H         PUBLIC        P3
  D:00D8H         PUBLIC        P4
  D:00B1H         PUBLIC        P5
  C:2B6FH         PUBLIC        _DisplayNum
  D:00A8H         PUBLIC        IE
  C:3842H         PUBLIC        ChairAnimation
  C:3763H         PUBLIC        GLCD_Init
  D:00B8H         PUBLIC        IP
  C:35F1H         PUBLIC        LoadingScreen
  C:38A4H         PUBLIC        QrScreen
  C:379BH         PUBLIC        _GLCD_SetCursor
  D:0098H         PUBLIC        SCON
  B:00B0H.2       PUBLIC        P32
  D:0088H         PUBLIC        TCON
  B:00A0H.4       PUBLIC        P24
  B:00A0H.5       PUBLIC        P25
  C:38C3H         PUBLIC        _GLCD_Command
  D:0091H         PUBLIC        SFRS
  X:0000H         PUBLIC        QrArray
  D:00C0H         PUBLIC        I2C0CON
  D:00E8H         PUBLIC        I2C1CON
  C:2DA5H         PUBLIC        _GLCD_Image
  C:3884H         PUBLIC        _Delay_1ms
  D:00F8H         PUBLIC        S1CON
  C:2F70H         PUBLIC        _ShowRemainigTime
  D:00C8H         PUBLIC        T2CON
  X:0400H         PUBLIC        Flags
  C:2E8CH         PUBLIC        _GLCD_Data
  D:00D0H         PUBLIC        PSW
  -------         PROC          _DELAY_1MS
  D:0006H         SYMBOL        mSec
  -------         DO            
  D:0002H         SYMBOL        j
  D:0004H         SYMBOL        t
  -------         ENDDO         
  C:3884H         LINE#         31
  C:3884H         LINE#         32
  C:3884H         LINE#         34
  C:388EH         LINE#         35
  C:388EH         LINE#         36
BL51 BANKED LINKER/LOCATER V6.22.4.0                                                  01/21/2024  13:17:52  PAGE 10


  C:389CH         LINE#         37
  C:38A3H         LINE#         38
  -------         ENDPROC       _DELAY_1MS
  -------         PROC          _GLCD_COMMAND
  D:0007H         SYMBOL        Command
  C:38C3H         LINE#         39
  C:38C3H         LINE#         40
  C:38C3H         LINE#         41
  C:38C8H         LINE#         42
  C:38CEH         LINE#         43
  C:38D0H         LINE#         45
  C:38D2H         LINE#         46
  C:38D9H         LINE#         47
  C:38DBH         LINE#         48
  -------         ENDPROC       _GLCD_COMMAND
  -------         PROC          _GLCD_DATA
  D:0007H         SYMBOL        Data
  C:2E8CH         LINE#         51
  C:2E8CH         LINE#         52
  C:2E8CH         LINE#         53
  C:2E91H         LINE#         54
  C:2E97H         LINE#         55
  C:2E99H         LINE#         57
  C:2E9BH         LINE#         59
  C:2EA2H         LINE#         60
  C:2EA9H         LINE#         61
  C:2EB0H         LINE#         63
  C:2EB7H         LINE#         64
  C:2EBEH         LINE#         65
  C:2EC5H         LINE#         67
  C:2ECCH         LINE#         68
  C:2ED3H         LINE#         69
  C:2EDAH         LINE#         71
  C:2EE1H         LINE#         72
  C:2EE8H         LINE#         73
  C:2EEFH         LINE#         75
  C:2EF6H         LINE#         76
  C:2EFDH         LINE#         77
  C:2F04H         LINE#         79
  C:2F06H         LINE#         80
  C:2F0DH         LINE#         81
  C:2F14H         LINE#         82
  C:2F1BH         LINE#         84
  C:2F22H         LINE#         85
  C:2F29H         LINE#         86
  C:2F30H         LINE#         88
  C:2F37H         LINE#         89
  C:2F3EH         LINE#         90
  C:2F45H         LINE#         92
  C:2F4CH         LINE#         93
  C:2F53H         LINE#         94
  C:2F5AH         LINE#         96
  C:2F61H         LINE#         97
  C:2F68H         LINE#         98
  C:2F6FH         LINE#         101
  -------         ENDPROC       _GLCD_DATA
  -------         PROC          GLCD_INIT
BL51 BANKED LINKER/LOCATER V6.22.4.0                                                  01/21/2024  13:17:52  PAGE 11


  C:3763H         LINE#         103
  C:3763H         LINE#         104
  C:3763H         LINE#         105
  C:3770H         LINE#         106
  C:377BH         LINE#         107
  C:3782H         LINE#         108
  C:3787H         LINE#         109
  C:378CH         LINE#         110
  C:3791H         LINE#         111
  C:3796H         LINE#         112
  -------         ENDPROC       GLCD_INIT
  -------         PROC          GLCD_CLEARALL
  -------         DO            
  X:05D9H         SYMBOL        i
  D:0004H         SYMBOL        j
  -------         ENDDO         
  C:34AAH         LINE#         115
  C:34AAH         LINE#         116
  C:34AAH         LINE#         118
  C:34B7H         LINE#         119
  C:34D0H         LINE#         120
  C:34D0H         LINE#         121
  C:34D7H         LINE#         122
  C:34DAH         LINE#         123
  C:34DAH         LINE#         124
  C:34DFH         LINE#         125
  C:34EAH         LINE#         126
  C:34FAH         LINE#         127
  C:34FFH         LINE#         128
  -------         ENDPROC       GLCD_CLEARALL
  -------         PROC          _GLCD_SETCURSOR
  D:0007H         SYMBOL        x
  D:0001H         SYMBOL        y
  D:0003H         SYMBOL        Page
  C:379BH         LINE#         131
  C:379DH         LINE#         132
  C:379DH         LINE#         133
  C:37BBH         LINE#         134
  C:37C2H         LINE#         135
  -------         ENDPROC       _GLCD_SETCURSOR
  -------         PROC          _GLCD_IMAGE
  X:05D9H         SYMBOL        x
  X:05DAH         SYMBOL        y
  X:05DBH         SYMBOL        StartPage
  X:05DCH         SYMBOL        Image
  X:05DFH         SYMBOL        ImageX
  X:05E0H         SYMBOL        ImageY
  -------         DO            
  X:05E1H         SYMBOL        GlcdX
  X:05E2H         SYMBOL        GlcdY
  X:05E3H         SYMBOL        ImageLenX
  X:05E4H         SYMBOL        ImageLenY
  X:05E5H         SYMBOL        Lines
  X:05E6H         SYMBOL        k
  -------         ENDDO         
  C:2DA5H         LINE#         138
  C:2DB0H         LINE#         139
BL51 BANKED LINKER/LOCATER V6.22.4.0                                                  01/21/2024  13:17:52  PAGE 12


  C:2DB0H         LINE#         140
  C:2DBCH         LINE#         141
  C:2DC1H         LINE#         142
  C:2DCFH         LINE#         143
  C:2DD4H         LINE#         145
  C:2DD7H         LINE#         146
  C:2E00H         LINE#         147
  C:2E00H         LINE#         148
  C:2E0DH         LINE#         149
  C:2E32H         LINE#         150
  C:2E32H         LINE#         151
  C:2E5DH         LINE#         152
  C:2E64H         LINE#         153
  C:2E72H         LINE#         154
  C:2E7AH         LINE#         155
  C:2E7AH         LINE#         156
  C:2E82H         LINE#         157
  C:2E8BH         LINE#         158
  -------         ENDPROC       _GLCD_IMAGE
  -------         PROC          QRSCREEN
  C:38A4H         LINE#         160
  C:38A4H         LINE#         161
  C:38A4H         LINE#         162
  C:38A7H         LINE#         163
  -------         ENDPROC       QRSCREEN
  -------         PROC          LOADINGSCREEN
  C:35F1H         LINE#         167
  C:35F1H         LINE#         168
  C:35F1H         LINE#         169
  C:35F4H         LINE#         170
  C:35F4H         LINE#         171
  C:35FBH         LINE#         172
  C:35FBH         LINE#         173
  C:35FEH         LINE#         174
  C:3619H         LINE#         175
  C:361BH         LINE#         177
  C:361BH         LINE#         178
  C:361EH         LINE#         179
  C:363DH         LINE#         180
  C:363DH         LINE#         181
  C:363DH         LINE#         182
  -------         ENDPROC       LOADINGSCREEN
  -------         PROC          CHAIRANIMATION
  C:3842H         LINE#         184
  C:3842H         LINE#         185
  C:3842H         LINE#         191
  C:3845H         LINE#         192
  -------         ENDPROC       CHAIRANIMATION
  -------         PROC          _SHOWREMAINIGTIME
  D:0002H         SYMBOL        Time
  -------         DO            
  X:057CH         SYMBOL        x
  X:057DH         SYMBOL        y
  X:057EH         SYMBOL        page
  X:057FH         SYMBOL        tempcnt
  X:0580H         SYMBOL        Min
  D:0002H         SYMBOL        Sec
BL51 BANKED LINKER/LOCATER V6.22.4.0                                                  01/21/2024  13:17:52  PAGE 13


  X:0582H         SYMBOL        Min1
  X:0583H         SYMBOL        Min2
  X:0584H         SYMBOL        Sec1
  X:0585H         SYMBOL        Sec2
  C:2FD6H         SYMBOL        Again
  -------         ENDDO         
  C:2F70H         LINE#         196
  C:2F74H         LINE#         197
  C:2F74H         LINE#         198
  C:2F79H         LINE#         201
  C:2F85H         LINE#         202
  C:2F97H         LINE#         203
  C:2FABH         LINE#         204
  C:2FBAH         LINE#         205
  C:2FC8H         LINE#         206
  C:2FD6H         LINE#         208
  C:2FD6H         LINE#         209
  C:2FE3H         LINE#         210
  C:2FE7H         LINE#         211
  C:2FECH         LINE#         213
  C:2FFBH         LINE#         214
  C:2FFBH         LINE#         215
  C:2FFBH         LINE#         216
  C:3006H         LINE#         217
  C:3008H         LINE#         218
  C:3008H         LINE#         219
  C:3013H         LINE#         220
  C:3015H         LINE#         221
  C:3015H         LINE#         222
  C:3027H         LINE#         223
  C:3029H         LINE#         224
  C:3029H         LINE#         225
  C:303EH         LINE#         226
  C:303EH         LINE#         227
  C:303EH         LINE#         228
  C:3044H         LINE#         229
  C:304AH         LINE#         230
  C:304AH         LINE#         232
  -------         ENDPROC       _SHOWREMAINIGTIME
  -------         PROC          _DISPLAYNUM
  X:0586H         SYMBOL        x
  X:0587H         SYMBOL        y
  X:0588H         SYMBOL        Page
  X:0589H         SYMBOL        Num
  C:2B6FH         LINE#         234
  C:2B7AH         LINE#         235
  C:2B7AH         LINE#         236
  C:2BA9H         LINE#         237
  C:2BA9H         LINE#         238
  C:2BA9H         LINE#         239
  C:2BBEH         LINE#         240
  C:2BC1H         LINE#         241
  C:2BC1H         LINE#         242
  C:2BD6H         LINE#         243
  C:2BD9H         LINE#         244
  C:2BD9H         LINE#         245
  C:2BEEH         LINE#         246
BL51 BANKED LINKER/LOCATER V6.22.4.0                                                  01/21/2024  13:17:52  PAGE 14


  C:2BF1H         LINE#         247
  C:2BF1H         LINE#         248
  C:2C06H         LINE#         249
  C:2C09H         LINE#         250
  C:2C09H         LINE#         251
  C:2C1EH         LINE#         252
  C:2C20H         LINE#         253
  C:2C20H         LINE#         254
  C:2C35H         LINE#         255
  C:2C37H         LINE#         256
  C:2C37H         LINE#         257
  C:2C4CH         LINE#         258
  C:2C4EH         LINE#         259
  C:2C4EH         LINE#         260
  C:2C63H         LINE#         261
  C:2C65H         LINE#         262
  C:2C65H         LINE#         263
  C:2C7AH         LINE#         264
  C:2C7CH         LINE#         265
  C:2C7CH         LINE#         266
  C:2CA2H         LINE#         267
  C:2CA2H         LINE#         269
  C:2CA2H         LINE#         270
  -------         ENDPROC       _DISPLAYNUM
  -------         ENDMOD        GLCD

  -------         MODULE        UART
  C:0000H         SYMBOL        _ICE_DUMMY_
  D:00DCH         PUBLIC        SC0ETURD1
  D:0080H         PUBLIC        P0
  D:0090H         PUBLIC        P1
  D:00A0H         PUBLIC        P2
  D:00B0H         PUBLIC        P3
  D:00D8H         PUBLIC        P4
  D:009CH         PUBLIC        EIE1
  C:36D4H         PUBLIC        _UART_Send_String
  C:344BH         PUBLIC        _UART_Send_Data
  X:04CEH         PUBLIC        GlcdImageCnt
  D:00D6H         PUBLIC        SC0CR0
  D:00E6H         PUBLIC        SC1CR0
  D:00D7H         PUBLIC        SC0CR1
  D:00A8H         PUBLIC        IE
  D:00E7H         PUBLIC        SC1CR1
  D:00B8H         PUBLIC        IP
  B:0098H.0       PUBLIC        RI
  C:32FBH         PUBLIC        _UART_Interrupt_Enable
  B:0098H.1       PUBLIC        TI
  X:04D0H         PUBLIC        UartLine
  B:00F8H.0       PUBLIC        RI_1
  B:00F8H.1       PUBLIC        TI_1
  D:0099H         PUBLIC        SBUF
  D:0087H         PUBLIC        PCON
  C:21ABH         PUBLIC        _UART_Open
  C:284FH         PUBLIC        Serial_ISR
  D:0098H         PUBLIC        SCON
  D:0089H         PUBLIC        TMOD
  D:0088H         PUBLIC        TCON
BL51 BANKED LINKER/LOCATER V6.22.4.0                                                  01/21/2024  13:17:52  PAGE 15


  X:04D1H         PUBLIC        GlcdUartRec
  X:04D2H         PUBLIC        UartRecFlag
  X:04D3H         PUBLIC        GlcdImgRecArray
  D:0091H         PUBLIC        SFRS
  X:04DDH         PUBLIC        UartRecBuff
  D:00DFH         PUBLIC        SC0TSR
  C:3504H         PUBLIC        _UART_Receive_Data
  D:00DFH         PUBLIC        SC1TSR
  C:3863H         PUBLIC        UART0_LIRC_Baudrate2400_Open
  X:0541H         PUBLIC        UartRecCount
  D:00C6H         PUBLIC        RH3
  D:008DH         PUBLIC        TH1
  D:00C0H         PUBLIC        I2C0CON
  D:00E8H         PUBLIC        I2C1CON
  D:00C5H         PUBLIC        RL3
  D:00DDH         PUBLIC        SC0IE
  D:00DDH         PUBLIC        SC1IE
  X:0542H         PUBLIC        UartStarRec
  X:0543H         PUBLIC        UartTempRecBuff
  D:00D9H         PUBLIC        SC0DR
  D:00D9H         PUBLIC        SC1DR
  D:009AH         PUBLIC        SBUF1
  D:00F8H         PUBLIC        S1CON
  D:00C8H         PUBLIC        T2CON
  D:00C4H         PUBLIC        T3CON
  D:008EH         PUBLIC        CKCON
  D:00D0H         PUBLIC        PSW
  D:00DBH         PUBLIC        SC0ETURD0
  -------         PROC          SERIAL_ISR
  -------         DO            
  X:05D8H         SYMBOL        uart_receive_data
  -------         ENDDO         
  C:284FH         LINE#         31
  C:286CH         LINE#         33
  C:2871H         LINE#         35
  C:2877H         LINE#         36
  C:2877H         LINE#         38
  C:2887H         LINE#         39
  C:288DH         LINE#         42
  C:289DH         LINE#         43
  C:289DH         LINE#         44
  C:28A5H         LINE#         45
  C:28A5H         LINE#         46
  C:28B1H         LINE#         47
  C:28CEH         LINE#         48
  C:28D3H         LINE#         49
  C:28DCH         LINE#         50
  C:28E1H         LINE#         52
  C:28E6H         LINE#         53
  C:28ECH         LINE#         54
  C:28FAH         LINE#         55
  C:28FCH         LINE#         56
  C:2902H         LINE#         57
  C:2902H         LINE#         58
  C:2904H         LINE#         59
  C:2909H         LINE#         60
  C:2909H         LINE#         61
BL51 BANKED LINKER/LOCATER V6.22.4.0                                                  01/21/2024  13:17:52  PAGE 16


  C:2909H         LINE#         64
  C:2914H         LINE#         65
  C:2914H         LINE#         66
  C:292EH         LINE#         67
  C:292EH         LINE#         68
  C:2931H         LINE#         69
  C:2931H         LINE#         70
  C:2933H         LINE#         71
  C:294DH         LINE#         72
  C:294DH         LINE#         73
  C:2962H         LINE#         74
  C:2968H         LINE#         75
  C:2968H         LINE#         77
  C:296FH         LINE#         78
  C:296FH         LINE#         79
  C:299DH         LINE#         80
  C:29ABH         LINE#         81
  C:29B0H         LINE#         82
  C:29B4H         LINE#         83
  C:29B4H         LINE#         84
  C:29B4H         LINE#         87
  C:29BEH         LINE#         88
  C:29BEH         LINE#         89
  C:29CAH         LINE#         90
  C:29E7H         LINE#         91
  C:29F0H         LINE#         92
  C:29F5H         LINE#         94
  C:29FAH         LINE#         95
  C:29FFH         LINE#         96
  C:2A0CH         LINE#         97
  C:2A0CH         LINE#         103
  C:2A12H         LINE#         105
  C:2A12H         LINE#         106
  C:2A15H         LINE#         107
  C:2A15H         LINE#         108
  C:2A1BH         LINE#         109
  C:2A1BH         LINE#         110
  -------         ENDPROC       SERIAL_ISR
  -------         PROC          _UART_OPEN
  X:057CH         SYMBOL        u32SysClock
  X:0580H         SYMBOL        u8UARTPort
  X:0581H         SYMBOL        u32Baudrate
  C:21ABH         LINE#         130
  C:21B1H         LINE#         131
  C:21B1H         LINE#         132
  C:21E1H         LINE#         133
  C:21E1H         LINE#         134
  C:21E1H         LINE#         135
  C:21E1H         LINE#         136
  C:21E4H         LINE#         137
  C:21E7H         LINE#         138
  C:21EAH         LINE#         139
  C:21EFH         LINE#         140
  C:21F4H         LINE#         141
  C:21F9H         LINE#         142
  C:2225H         LINE#         143
  C:222BH         LINE#         144
BL51 BANKED LINKER/LOCATER V6.22.4.0                                                  01/21/2024  13:17:52  PAGE 17


  C:222CH         LINE#         145
  C:222CH         LINE#         146
  C:222FH         LINE#         147
  C:2232H         LINE#         148
  C:2237H         LINE#         149
  C:223AH         LINE#         150
  C:223FH         LINE#         151
  C:223FH         LINE#         152
  C:223FH         LINE#         153
  C:223FH         LINE#         154
  C:2241H         LINE#         155
  C:2241H         LINE#         156
  C:2241H         LINE#         157
  C:2244H         LINE#         158
  C:2247H         LINE#         159
  C:224AH         LINE#         160
  C:2286H         LINE#         161
  C:22B5H         LINE#         162
  C:22BAH         LINE#         163
  C:22BBH         LINE#         164
  C:22BBH         LINE#         165
  C:22C1H         LINE#         166
  C:22C6H         LINE#         167
  C:22CBH         LINE#         168
  C:22D0H         LINE#         169
  C:22D5H         LINE#         170
  C:230CH         LINE#         171
  C:230FH         LINE#         172
  C:2350H         LINE#         173
  C:2356H         LINE#         174
  C:2359H         LINE#         175
  C:235EH         LINE#         176
  C:235FH         LINE#         177
  C:235FH         LINE#         178
  C:2365H         LINE#         179
  C:236AH         LINE#         180
  C:236FH         LINE#         181
  C:239DH         LINE#         182
  C:23D6H         LINE#         183
  C:23DCH         LINE#         184
  C:23DFH         LINE#         185
  C:23E5H         LINE#         186
  C:23E5H         LINE#         187
  C:23E5H         LINE#         188
  -------         ENDPROC       _UART_OPEN
  -------         PROC          _UART_RECEIVE_DATA
  D:0007H         SYMBOL        UARTPort
  -------         DO            
  D:0006H         SYMBOL        c
  -------         ENDDO         
  C:3504H         LINE#         192
  C:3504H         LINE#         193
  C:3504H         LINE#         195
  C:3507H         LINE#         196
  C:3516H         LINE#         197
  C:3516H         LINE#         198
  C:3516H         LINE#         199
BL51 BANKED LINKER/LOCATER V6.22.4.0                                                  01/21/2024  13:17:52  PAGE 18


  C:3519H         LINE#         200
  C:351BH         LINE#         201
  C:351DH         LINE#         202
  C:351FH         LINE#         203
  C:351FH         LINE#         204
  C:3522H         LINE#         205
  C:3524H         LINE#         206
  C:3526H         LINE#         207
  C:3528H         LINE#         208
  C:3528H         LINE#         209
  C:352EH         LINE#         210
  C:3533H         LINE#         211
  C:3535H         LINE#         212
  C:3537H         LINE#         213
  C:3537H         LINE#         214
  C:353DH         LINE#         215
  C:354FH         LINE#         216
  C:3551H         LINE#         217
  C:3551H         LINE#         218
  C:3551H         LINE#         219
  C:3553H         LINE#         220
  -------         ENDPROC       _UART_RECEIVE_DATA
  -------         PROC          _UART_SEND_DATA
  D:0007H         SYMBOL        UARTPort
  D:0005H         SYMBOL        c
  C:344BH         LINE#         224
  C:344BH         LINE#         225
  C:344BH         LINE#         226
  C:344EH         LINE#         227
  C:345DH         LINE#         228
  C:345DH         LINE#         229
  C:345DH         LINE#         230
  C:3460H         LINE#         231
  C:3462H         LINE#         232
  C:3464H         LINE#         233
  C:3467H         LINE#         234
  C:3469H         LINE#         235
  C:346AH         LINE#         236
  C:346AH         LINE#         237
  C:346DH         LINE#         238
  C:346FH         LINE#         239
  C:3471H         LINE#         240
  C:3474H         LINE#         241
  C:3476H         LINE#         242
  C:3477H         LINE#         243
  C:3477H         LINE#         244
  C:347DH         LINE#         245
  C:347FH         LINE#         246
  C:3487H         LINE#         247
  C:348DH         LINE#         248
  C:348EH         LINE#         249
  C:348EH         LINE#         250
  C:3494H         LINE#         251
  C:3497H         LINE#         252
  C:349BH         LINE#         253
  C:34A3H         LINE#         254
  C:34A9H         LINE#         255
BL51 BANKED LINKER/LOCATER V6.22.4.0                                                  01/21/2024  13:17:52  PAGE 19


  C:34A9H         LINE#         256
  C:34A9H         LINE#         257
  -------         ENDPROC       _UART_SEND_DATA
  -------         PROC          _UART_SEND_STRING
  D:0007H         SYMBOL        UARTPort
  D:0001H         SYMBOL        c
  C:36D4H         LINE#         260
  C:36D4H         LINE#         261
  C:36D4H         LINE#         262
  C:36E0H         LINE#         263
  C:36E0H         LINE#         264
  C:36E0H         LINE#         265
  C:36E6H         LINE#         266
  C:36E6H         LINE#         267
  C:36EBH         LINE#         268
  C:36F2H         LINE#         269
  C:36F4H         LINE#         270
  C:36F4H         LINE#         271
  C:36F4H         LINE#         272
  C:36FAH         LINE#         273
  C:36FAH         LINE#         274
  C:36FFH         LINE#         275
  C:3706H         LINE#         276
  C:3708H         LINE#         277
  C:3708H         LINE#         278
  C:3708H         LINE#         279
  C:370EH         LINE#         280
  C:370EH         LINE#         281
  C:3713H         LINE#         282
  C:371AH         LINE#         283
  C:371CH         LINE#         284
  C:371CH         LINE#         286
  C:371CH         LINE#         287
  -------         ENDPROC       _UART_SEND_STRING
  -------         PROC          _UART_INTERRUPT_ENABLE
  D:0007H         SYMBOL        u8UARTPort
  D:0005H         SYMBOL        u8UARTINTStatus
  C:32FBH         LINE#         297
  C:32FBH         LINE#         298
  C:32FBH         LINE#         299
  C:330AH         LINE#         300
  C:330AH         LINE#         301
  C:330AH         LINE#         302
  C:3311H         LINE#         303
  C:3311H         LINE#         304
  C:3318H         LINE#         305
  C:331FH         LINE#         306
  C:331FH         LINE#         307
  C:331FH         LINE#         308
  C:331FH         LINE#         309
  C:3326H         LINE#         310
  C:3326H         LINE#         311
  C:332DH         LINE#         312
  C:3334H         LINE#         313
  C:3334H         LINE#         314
  C:3334H         LINE#         315
  C:3334H         LINE#         316
BL51 BANKED LINKER/LOCATER V6.22.4.0                                                  01/21/2024  13:17:52  PAGE 20


  C:333BH         LINE#         317
  C:333BH         LINE#         318
  C:3341H         LINE#         319
  C:3346H         LINE#         320
  C:3347H         LINE#         321
  C:334DH         LINE#         322
  C:3352H         LINE#         323
  C:3353H         LINE#         324
  C:3353H         LINE#         325
  C:3353H         LINE#         326
  C:3353H         LINE#         327
  C:335AH         LINE#         328
  C:335AH         LINE#         329
  C:3360H         LINE#         330
  C:3366H         LINE#         331
  C:3367H         LINE#         332
  C:336DH         LINE#         333
  C:3373H         LINE#         334
  C:3373H         LINE#         335
  C:3373H         LINE#         336
  C:3373H         LINE#         337
  C:3373H         LINE#         338
  -------         ENDPROC       _UART_INTERRUPT_ENABLE
  -------         PROC          UART0_LIRC_BAUDRATE2400_OPEN
  C:3863H         LINE#         340
  C:3863H         LINE#         341
  C:3863H         LINE#         342
  C:3866H         LINE#         343
  C:3869H         LINE#         344
  C:386CH         LINE#         345
  C:3871H         LINE#         346
  C:3876H         LINE#         347
  C:387BH         LINE#         348
  C:387EH         LINE#         349
  C:3883H         LINE#         351
  -------         ENDPROC       UART0_LIRC_BAUDRATE2400_OPEN
  -------         ENDMOD        UART

  -------         MODULE        RGSM_AT
  C:0000H         SYMBOL        _ICE_DUMMY_
  D:0080H         PUBLIC        P0
  D:0090H         PUBLIC        P1
  D:00A0H         PUBLIC        P2
  D:00B0H         PUBLIC        P3
  D:00D8H         PUBLIC        P4
  C:37C9H         PUBLIC        ClearUart
  X:0401H         PUBLIC        SMSRecFlag
  C:23E6H         PUBLIC        CheckUrc
  D:00A8H         PUBLIC        IE
  C:2D7FH         PUBLIC        GLCD_IMG_END
  C:2D98H         PUBLIC        MQTT_DISCONNECT
  X:0402H         PUBLIC        TimerForChair
  D:00B8H         PUBLIC        IP
  B:0021H.1       PUBLIC        FlagSystemConnected
  C:2D6DH         PUBLIC        CREG
  X:0404H         PUBLIC        OffTime
  D:0098H         PUBLIC        SCON
BL51 BANKED LINKER/LOCATER V6.22.4.0                                                  01/21/2024  13:17:52  PAGE 21


  C:2D8EH         PUBLIC        MQTT_CONNECT
  B:0021H.2       PUBLIC        FlagOffAud
  D:0088H         PUBLIC        TCON
  B:0021H.3       PUBLIC        FlagStopAud
  X:0405H         PUBLIC        etxt
  C:2D74H         PUBLIC        GLCD_IMG_START
  B:0021H.4       PUBLIC        FlagChairWorking
  D:00C0H         PUBLIC        I2C0CON
  D:00E8H         PUBLIC        I2C1CON
  X:04CDH         PUBLIC        PreUartLine
  C:33EBH         PUBLIC        _DebugPrintf
  D:00F8H         PUBLIC        S1CON
  D:00C8H         PUBLIC        T2CON
  C:304BH         PUBLIC        _NW_Responce_Handler
  C:2D88H         PUBLIC        MCU_TIME
  D:00D0H         PUBLIC        PSW
  -------         PROC          _DEBUGPRINTF
  X:057CH         SYMBOL        fmt
  -------         DO            
  X:057FH         SYMBOL        ellipsis_40
  X:05A7H         SYMBOL        arg_ptr
  -------         ENDDO         
  C:33EBH         LINE#         39
  C:33F6H         LINE#         41
  C:3404H         LINE#         42
  C:3437H         LINE#         43
  C:3440H         LINE#         44
  -------         ENDPROC       _DEBUGPRINTF
  -------         PROC          _NW_RESPONCE_HANDLER
  X:05F0H         SYMBOL        Line
  X:05F3H         SYMBOL        UserData
  C:304BH         LINE#         49
  C:3056H         LINE#         50
  C:3056H         LINE#         51
  C:305BH         LINE#         52
  C:309DH         LINE#         53
  C:30CDH         LINE#         54
  C:30EEH         LINE#         55
  C:311FH         LINE#         56
  -------         ENDPROC       _NW_RESPONCE_HANDLER
  -------         PROC          CHECKURC
  C:23E6H         LINE#         59
  C:23E6H         LINE#         60
  C:23E6H         LINE#         61
  C:23F5H         LINE#         62
  C:23F5H         LINE#         63
  C:23F8H         LINE#         65
  C:241AH         LINE#         98
  C:2442H         LINE#         99
  C:2442H         LINE#         100
  C:2448H         LINE#         101
  C:244DH         LINE#         102
  C:2453H         LINE#         104
  C:2460H         LINE#         105
  C:2460H         LINE#         107
  C:2488H         LINE#         108
  C:2488H         LINE#         109
BL51 BANKED LINKER/LOCATER V6.22.4.0                                                  01/21/2024  13:17:52  PAGE 22


  C:249BH         LINE#         110
  C:249FH         LINE#         111
  C:24A3H         LINE#         115
  C:24A6H         LINE#         116
  C:24A9H         LINE#         117
  C:24B8H         LINE#         118
  C:24BBH         LINE#         126
  C:24C2H         LINE#         127
  C:24CDH         LINE#         128
  C:24D4H         LINE#         129
  C:24DFH         LINE#         133
  C:24DFH         LINE#         136
  C:2507H         LINE#         137
  C:2507H         LINE#         138
  C:2509H         LINE#         139
  C:250CH         LINE#         140
  C:250FH         LINE#         142
  C:250FH         LINE#         144
  C:2537H         LINE#         145
  C:2537H         LINE#         146
  C:2539H         LINE#         147
  C:253CH         LINE#         150
  C:253CH         LINE#         153
  C:2567H         LINE#         154
  C:2567H         LINE#         155
  C:258CH         LINE#         156
  C:25BEH         LINE#         157
  C:25CFH         LINE#         158
  C:25CFH         LINE#         160
  C:25D5H         LINE#         162
  C:25DEH         LINE#         163
  C:25E0H         LINE#         164
  C:25E3H         LINE#         165
  C:25E6H         LINE#         168
  C:25E6H         LINE#         169
  C:25FEH         LINE#         170
  C:25FEH         LINE#         172
  C:2601H         LINE#         173
  C:2619H         LINE#         174
  C:261CH         LINE#         176
  -------         ENDPROC       CHECKURC
  -------         PROC          CLEARUART
  C:37C9H         LINE#         178
  C:37C9H         LINE#         179
  C:37C9H         LINE#         180
  C:37D2H         LINE#         181
  C:37D6H         LINE#         182
  C:37E3H         LINE#         183
  -------         ENDPROC       CLEARUART
  -------         ENDMOD        RGSM_AT

  -------         MODULE        RDATAFLASH
  C:0000H         SYMBOL        _ICE_DUMMY_
  D:0080H         PUBLIC        P0
  C:3900H         PUBLIC        Default_Settings
  D:0090H         PUBLIC        P1
  D:00A0H         PUBLIC        P2
BL51 BANKED LINKER/LOCATER V6.22.4.0                                                  01/21/2024  13:17:52  PAGE 23


  D:00B0H         PUBLIC        P3
  D:00D8H         PUBLIC        P4
  B:00A8H.7       PUBLIC        EA
  D:00A8H         PUBLIC        IE
  X:05F6H         PUBLIC        ResetCount
  D:00C7H         PUBLIC        TA
  D:00B8H         PUBLIC        IP
  B:0021H.5       PUBLIC        BIT_TMP
  D:0098H         PUBLIC        SCON
  D:0088H         PUBLIC        TCON
  D:009FH         PUBLIC        CHPCON
  D:0091H         PUBLIC        SFRS
  C:3554H         PUBLIC        _WriteFlashQr
  D:00A5H         PUBLIC        IAPUEN
  D:00A4H         PUBLIC        IAPTRG
  D:00C0H         PUBLIC        I2C0CON
  C:0003H         PUBLIC        _Read_Data_Byte
  D:00E8H         PUBLIC        I2C1CON
  C:363EH         PUBLIC        _Page_Erase
  C:38F2H         PUBLIC        _ConvertToUINT16
  C:371DH         PUBLIC        Write_Flash
  C:3374H         PUBLIC        _Write_Data_Byte
  D:00A7H         PUBLIC        IAPAH
  D:00F8H         PUBLIC        S1CON
  D:00AEH         PUBLIC        IAPFD
  D:00C8H         PUBLIC        T2CON
  D:00A6H         PUBLIC        IAPAL
  D:00AFH         PUBLIC        IAPCN
  C:31DFH         PUBLIC        ReadFlash
  D:00D0H         PUBLIC        PSW
  -------         PROC          _PAGE_ERASE
  D:0006H         SYMBOL        Add
  C:363EH         LINE#         9
  C:363EH         LINE#         10
  C:363EH         LINE#         11
  C:3640H         LINE#         12
  C:3643H         LINE#         13
  C:3646H         LINE#         14
  C:365CH         LINE#         15
  C:3671H         LINE#         16
  C:3674H         LINE#         17
  C:3689H         LINE#         18
  -------         ENDPROC       _PAGE_ERASE
  -------         PROC          _WRITE_DATA_BYTE
  D:0006H         SYMBOL        Add
  D:0005H         SYMBOL        Data
  C:3374H         LINE#         20
  C:3374H         LINE#         21
  C:3374H         LINE#         22
  C:3376H         LINE#         23
  C:3379H         LINE#         24
  C:338FH         LINE#         25
  C:33A4H         LINE#         26
  C:33A7H         LINE#         27
  C:33ABH         LINE#         28
  C:33C0H         LINE#         29
  C:33D5H         LINE#         30
BL51 BANKED LINKER/LOCATER V6.22.4.0                                                  01/21/2024  13:17:52  PAGE 24


  C:33EAH         LINE#         31
  -------         ENDPROC       _WRITE_DATA_BYTE
  -------         PROC          _READ_DATA_BYTE
  D:0082H         SYMBOL        Add
  -------         DO            
  D:0007H         SYMBOL        rdata
  -------         ENDDO         
  C:0003H         LINE#         35
  C:0007H         LINE#         36
  C:0007H         LINE#         38
  C:000AH         LINE#         39
  C:000AH         LINE#         40
  -------         ENDPROC       _READ_DATA_BYTE
  -------         PROC          WRITE_FLASH
  -------         DO            
  X:057EH         SYMBOL        TempVar
  -------         ENDDO         
  C:371DH         LINE#         42
  C:371DH         LINE#         43
  C:371DH         LINE#         45
  C:3724H         LINE#         46
  C:3726H         LINE#         47
  C:372DH         LINE#         48
  C:3732H         LINE#         49
  C:3748H         LINE#         50
  C:3760H         LINE#         52
  C:3762H         LINE#         53
  -------         ENDPROC       WRITE_FLASH
  -------         PROC          _WRITEFLASHQR
  X:057CH         SYMBOL        Length
  -------         DO            
  D:0002H         SYMBOL        k
  -------         ENDDO         
  C:3554H         LINE#         55
  C:355CH         LINE#         56
  C:355CH         LINE#         57
  C:355FH         LINE#         58
  C:3566H         LINE#         59
  C:3574H         LINE#         60
  C:3574H         LINE#         61
  C:3579H         LINE#         62
  C:3579H         LINE#         63
  C:3584H         LINE#         64
  C:3584H         LINE#         65
  C:359BH         LINE#         66
  C:35A2H         LINE#         67
  -------         ENDPROC       _WRITEFLASHQR
  -------         PROC          READFLASH
  -------         DO            
  X:057CH         SYMBOL        TmpCnt
  -------         ENDDO         
  C:31DFH         LINE#         69
  C:31DFH         LINE#         70
  C:31DFH         LINE#         71
  C:31E6H         LINE#         72
  C:31F2H         LINE#         73
  C:31F6H         LINE#         74
BL51 BANKED LINKER/LOCATER V6.22.4.0                                                  01/21/2024  13:17:52  PAGE 25


  C:31F9H         LINE#         76
  C:321CH         LINE#         77
  C:3224H         LINE#         78
  C:3224H         LINE#         79
  C:3241H         LINE#         80
  C:3241H         LINE#         81
  C:325EH         LINE#         82
  C:326EH         LINE#         83
  C:326EH         LINE#         85
  -------         ENDPROC       READFLASH
  -------         PROC          _CONVERTTOUINT16
  D:0007H         SYMBOL        Tenth
  D:0005H         SYMBOL        Unit
  C:38F2H         LINE#         87
  C:38F2H         LINE#         88
  C:38F2H         LINE#         89
  C:38FFH         LINE#         90
  -------         ENDPROC       _CONVERTTOUINT16
  -------         PROC          DEFAULT_SETTINGS
  C:3900H         LINE#         92
  C:3900H         LINE#         93
  C:3900H         LINE#         94
  C:3907H         LINE#         95
  -------         ENDPROC       DEFAULT_SETTINGS
  -------         ENDMOD        RDATAFLASH

  -------         MODULE        RTIMER0
  C:0000H         SYMBOL        _ICE_DUMMY_
  D:0080H         PUBLIC        P0
  D:0090H         PUBLIC        P1
  D:00A0H         PUBLIC        P2
  D:00B0H         PUBLIC        P3
  C:2A36H         PUBLIC        Timer0_ISR
  D:00D8H         PUBLIC        P4
  D:00A8H         PUBLIC        IE
  D:00B8H         PUBLIC        IP
  C:37F2H         PUBLIC        _Timer0_Init
  D:0098H         PUBLIC        SCON
  D:0089H         PUBLIC        TMOD
  D:0088H         PUBLIC        TCON
  B:00B0H.3       PUBLIC        P33
  D:0091H         PUBLIC        SFRS
  B:0088H.5       PUBLIC        TF0
  X:05EAH         PUBLIC        PreStartTime
  D:008CH         PUBLIC        TH0
  D:00C0H         PUBLIC        I2C0CON
  D:008AH         PUBLIC        TL0
  D:00E8H         PUBLIC        I2C1CON
  X:05EBH         PUBLIC        LoadingTime
  X:05ECH         PUBLIC        Timer0Loadvalue
  X:05EEH         PUBLIC        Timer1Loadvalue
  D:00F8H         PUBLIC        S1CON
  D:00C8H         PUBLIC        T2CON
  D:00D0H         PUBLIC        PSW
  -------         PROC          TIMER0_ISR
  -------         DO            
  X:05E8H         SYMBOL        Timer0Count
BL51 BANKED LINKER/LOCATER V6.22.4.0                                                  01/21/2024  13:17:52  PAGE 26


  -------         ENDDO         
  C:2A36H         LINE#         21
  C:2A53H         LINE#         24
  C:2A61H         LINE#         26
  C:2A7DH         LINE#         27
  C:2A7DH         LINE#         28
  C:2A80H         LINE#         30
  C:2A83H         LINE#         31
  C:2A83H         LINE#         32
  C:2A85H         LINE#         33
  C:2A8DH         LINE#         34
  C:2A8FH         LINE#         35
  C:2A8FH         LINE#         36
  C:2A8FH         LINE#         38
  C:2AA2H         LINE#         39
  C:2AA2H         LINE#         40
  C:2AA8H         LINE#         41
  C:2AA8H         LINE#         42
  C:2AB6H         LINE#         45
  C:2ABDH         LINE#         46
  C:2ABDH         LINE#         47
  C:2ABFH         LINE#         48
  C:2AC2H         LINE#         49
  C:2AC2H         LINE#         50
  C:2AC4H         LINE#         51
  C:2AC7H         LINE#         52
  C:2AC9H         LINE#         54
  C:2AC9H         LINE#         55
  C:2ACBH         LINE#         58
  C:2AD1H         LINE#         59
  C:2AD1H         LINE#         60
  C:2AD1H         LINE#         61
  C:2AD3H         LINE#         62
  C:2ADCH         LINE#         63
  C:2ADCH         LINE#         64
  C:2ADFH         LINE#         65
  C:2AE2H         LINE#         66
  C:2AE2H         LINE#         67
  C:2AE5H         LINE#         68
  C:2B02H         LINE#         69
  C:2B04H         LINE#         70
  C:2B04H         LINE#         71
  C:2B04H         LINE#         72
  C:2B04H         LINE#         75
  C:2B17H         LINE#         76
  C:2B17H         LINE#         77
  C:2B1DH         LINE#         78
  C:2B20H         LINE#         79
  C:2B20H         LINE#         81
  C:2B37H         LINE#         82
  C:2B3EH         LINE#         84
  C:2B4EH         LINE#         85
  C:2B54H         LINE#         86
  -------         ENDPROC       TIMER0_ISR
  -------         PROC          _TIMER0_INIT
  D:0007H         SYMBOL        Msec
  C:37F2H         LINE#         97
BL51 BANKED LINKER/LOCATER V6.22.4.0                                                  01/21/2024  13:17:52  PAGE 27


  C:37F2H         LINE#         98
  C:37F2H         LINE#         99
  C:37F5H         LINE#         100
  C:380DH         LINE#         101
  C:381AH         LINE#         102
  -------         ENDPROC       _TIMER0_INIT
  -------         ENDMOD        RTIMER0

  -------         MODULE        ?C?CLDPTR
  C:1741H         PUBLIC        ?C?CLDPTR
  -------         ENDMOD        ?C?CLDPTR

  -------         MODULE        ?C?CLDOPTR
  C:175AH         PUBLIC        ?C?CLDOPTR
  -------         ENDMOD        ?C?CLDOPTR

  -------         MODULE        ?C?IMUL
  C:1787H         PUBLIC        ?C?IMUL
  -------         ENDMOD        ?C?IMUL

  -------         MODULE        ?C?UIDIV
  C:1799H         PUBLIC        ?C?UIDIV
  -------         ENDMOD        ?C?UIDIV

  -------         MODULE        ?C?ULDIV
  C:182AH         PUBLIC        ?C?ULDIV
  -------         ENDMOD        ?C?ULDIV

  -------         MODULE        ?C?SLCMP
  C:18BCH         PUBLIC        ?C?SLCMP
  -------         ENDMOD        ?C?SLCMP

  -------         MODULE        ?C?ULSHR
  C:18D2H         PUBLIC        ?C?ULSHR
  -------         ENDMOD        ?C?ULSHR

  -------         MODULE        ?C?LSTXDATA
  C:18E5H         PUBLIC        ?C?LSTXDATA
  -------         ENDMOD        ?C?LSTXDATA

  -------         MODULE        ?C?LSTKXDATA
  C:18F1H         PUBLIC        ?C?LSTKXDATA
  -------         ENDMOD        ?C?LSTKXDATA

  -------         MODULE        SCANF
  X:057CH         PUBLIC        ?_SCANF517?BYTE
  X:057CH         PUBLIC        ?_SCANF?BYTE
  X:057CH         PUBLIC        ?_SSCANF517?BYTE
  X:057CH         PUBLIC        ?_SSCANF?BYTE
  C:1F16H         PUBLIC        _SCANF
  C:1F16H         PUBLIC        _SCANF517
  C:1F12H         PUBLIC        _SSCANF
  C:1F12H         PUBLIC        _SSCANF517
  -------         ENDMOD        SCANF

  -------         MODULE        ?C?STRCPY
  C:19EEH         PUBLIC        ?C?STRCPY
BL51 BANKED LINKER/LOCATER V6.22.4.0                                                  01/21/2024  13:17:52  PAGE 28


  -------         ENDMOD        ?C?STRCPY

  -------         MODULE        STRSTR
  X:057CH         PUBLIC        ?_strstr?BYTE
  C:3120H         PUBLIC        _strstr
  -------         ENDMOD        STRSTR

  -------         MODULE        ?C?MEMSET
  C:1A0BH         PUBLIC        ?C?MEMSET
  -------         ENDMOD        ?C?MEMSET

  -------         MODULE        VSPRINTF
  X:05A7H         PUBLIC        ?_VSPRINTF?BYTE
  C:368AH         PUBLIC        _VSPRINTF
  -------         ENDMOD        VSPRINTF

  -------         MODULE        ?C?CSTPTR
  C:1A37H         PUBLIC        ?C?CSTPTR
  -------         ENDMOD        ?C?CSTPTR

  -------         MODULE        ?C?IILDX
  C:1A49H         PUBLIC        ?C?IILDX
  -------         ENDMOD        ?C?IILDX

  -------         MODULE        ?C?ISTPTR
  C:1A5FH         PUBLIC        ?C?ISTPTR
  -------         ENDMOD        ?C?ISTPTR

  -------         MODULE        ?C?LNEG
  C:1A7EH         PUBLIC        ?C?LNEG
  -------         ENDMOD        ?C?LNEG

  -------         MODULE        ?C?LSTPTR
  C:1A8CH         PUBLIC        ?C?LSTPTR
  -------         ENDMOD        ?C?LSTPTR

  -------         MODULE        ?C?PLDXDATA
  C:1AA6H         PUBLIC        ?C?PLDXDATA
  -------         ENDMOD        ?C?PLDXDATA

  -------         MODULE        ?C?PLDIXDATA
  C:1AAFH         PUBLIC        ?C?PLDIXDATA
  -------         ENDMOD        ?C?PLDIXDATA

  -------         MODULE        ?C?PILDXDATA
  C:1AC6H         PUBLIC        ?C?PILDXDATA
  -------         ENDMOD        ?C?PILDXDATA

  -------         MODULE        ?C?PSTXDATA
  C:1ADDH         PUBLIC        ?C?PSTXDATA
  -------         ENDMOD        ?C?PSTXDATA

  -------         MODULE        ?C?CCASE
  C:1AE6H         PUBLIC        ?C?CCASE
  -------         ENDMOD        ?C?CCASE

  -------         MODULE        PRINTF
BL51 BANKED LINKER/LOCATER V6.22.4.0                                                  01/21/2024  13:17:52  PAGE 29


  X:05B0H         PUBLIC        ?_PRINTF517?BYTE
  X:05B0H         PUBLIC        ?_PRINTF?BYTE
  X:05B0H         PUBLIC        ?_SPRINTF517?BYTE
  X:05B0H         PUBLIC        ?_SPRINTF?BYTE
  C:1B8FH         PUBLIC        _PRINTF
  C:1B8FH         PUBLIC        _PRINTF517
  C:1B89H         PUBLIC        _SPRINTF
  C:1B89H         PUBLIC        _SPRINTF517
  -------         ENDMOD        PRINTF

  -------         MODULE        GETCHAR
  B:0021H.6       PUBLIC        ?C?CHARLOADED
  X:05F7H         PUBLIC        ?_UNGETCHAR?BYTE
  C:000EH         PUBLIC        GETCHAR
  -------         ENDMOD        GETCHAR

  -------         MODULE        UNGETC
  C:3914H         PUBLIC        _UNGETCHAR
  -------         ENDMOD        UNGETC

  -------         MODULE        ISSPACE
  C:38DEH         PUBLIC        _isspace
  -------         ENDMOD        ISSPACE

  -------         MODULE        ?C?LSTIDATA
  C:1B0CH         PUBLIC        ?C?LSTIDATA
  -------         ENDMOD        ?C?LSTIDATA

  -------         MODULE        ?C?LSTPDATA
  C:1B18H         PUBLIC        ?C?LSTPDATA
  -------         ENDMOD        ?C?LSTPDATA

  -------         MODULE        PUTCHAR
  C:381BH         PUBLIC        _PUTCHAR
  -------         ENDMOD        PUTCHAR

  -------         MODULE        _GETKEY
  C:390AH         PUBLIC        _GETKEY
  -------         ENDMOD        _GETKEY

*** WARNING L16: UNCALLED SEGMENT, IGNORED FOR OVERLAY PROCESS
    SEGMENT: ?PR?_UART_RECEIVE_DATA?UART

*** WARNING L16: UNCALLED SEGMENT, IGNORED FOR OVERLAY PROCESS
    SEGMENT: ?PR?UART0_LIRC_BAUDRATE2400_OPEN?UART

*** WARNING L16: UNCALLED SEGMENT, IGNORED FOR OVERLAY PROCESS
    SEGMENT: ?PR?_NW_RESPONCE_HANDLER?RGSM_AT

*** WARNING L16: UNCALLED SEGMENT, IGNORED FOR OVERLAY PROCESS
    SEGMENT: ?PR?_CONVERTTOUINT16?RDATAFLASH

*** WARNING L15: MULTIPLE CALL TO SEGMENT
    SEGMENT: ?PR?GLCD_CLEARALL?GLCD
    CALLER1: ?C_C51STARTUP
    CALLER2: ?PR?TIMER0_ISR?RTIMER0

BL51 BANKED LINKER/LOCATER V6.22.4.0                                                  01/21/2024  13:17:52  PAGE 30


*** WARNING L15: MULTIPLE CALL TO SEGMENT
    SEGMENT: ?PR?_GLCD_IMAGE?GLCD
    CALLER1: ?C_C51STARTUP
    CALLER2: ?PR?TIMER0_ISR?RTIMER0

Program Size: data=15.7 xdata=1528 code=14619
LINK/LOCATE RUN COMPLETE.  6 WARNING(S),  0 ERROR(S)
